
nrf52832_xxaa.out:     file format elf32-littlearm


Disassembly of section .text:

00000000 <__isr_vector>:
       0:	20010000 	.word	0x20010000
       4:	000002bd 	.word	0x000002bd
       8:	000002e5 	.word	0x000002e5
       c:	000002e7 	.word	0x000002e7
      10:	000002e9 	.word	0x000002e9
      14:	000002eb 	.word	0x000002eb
      18:	000002ed 	.word	0x000002ed
	...
      2c:	000002ef 	.word	0x000002ef
      30:	000002f1 	.word	0x000002f1
      34:	00000000 	.word	0x00000000
      38:	000002f3 	.word	0x000002f3
      3c:	000002f5 	.word	0x000002f5
      40:	000002f7 	.word	0x000002f7
      44:	000002f7 	.word	0x000002f7
      48:	0000160d 	.word	0x0000160d
      4c:	000025f5 	.word	0x000025f5
      50:	00002845 	.word	0x00002845
      54:	000002f7 	.word	0x000002f7
      58:	00002b95 	.word	0x00002b95
      5c:	00002e2d 	.word	0x00002e2d
      60:	000002f7 	.word	0x000002f7
      64:	000002f7 	.word	0x000002f7
      68:	000002f7 	.word	0x000002f7
      6c:	000002f7 	.word	0x000002f7
      70:	000002f7 	.word	0x000002f7
      74:	000002f7 	.word	0x000002f7
      78:	000002f7 	.word	0x000002f7
      7c:	000002f7 	.word	0x000002f7
      80:	000002f7 	.word	0x000002f7
      84:	000002f7 	.word	0x000002f7
      88:	000002f7 	.word	0x000002f7
      8c:	000002f7 	.word	0x000002f7
      90:	000002f7 	.word	0x000002f7
      94:	000002f7 	.word	0x000002f7
      98:	000002f7 	.word	0x000002f7
      9c:	000002f7 	.word	0x000002f7
      a0:	000002f7 	.word	0x000002f7
      a4:	000002f7 	.word	0x000002f7
      a8:	000002f7 	.word	0x000002f7
      ac:	000002f7 	.word	0x000002f7
      b0:	000002f7 	.word	0x000002f7
      b4:	000002f7 	.word	0x000002f7
	...
      c0:	000002f7 	.word	0x000002f7
      c4:	000002f7 	.word	0x000002f7
      c8:	000002f7 	.word	0x000002f7
      cc:	000002f7 	.word	0x000002f7
      d0:	000002f7 	.word	0x000002f7
      d4:	000002f7 	.word	0x000002f7
      d8:	000002f7 	.word	0x000002f7
	...

00000200 <__do_global_dtors_aux>:
     200:	b510      	push	{r4, lr}
     202:	4c05      	ldr	r4, [pc, #20]	; (218 <__do_global_dtors_aux+0x18>)
     204:	7823      	ldrb	r3, [r4, #0]
     206:	b933      	cbnz	r3, 216 <__do_global_dtors_aux+0x16>
     208:	4b04      	ldr	r3, [pc, #16]	; (21c <__do_global_dtors_aux+0x1c>)
     20a:	b113      	cbz	r3, 212 <__do_global_dtors_aux+0x12>
     20c:	4804      	ldr	r0, [pc, #16]	; (220 <__do_global_dtors_aux+0x20>)
     20e:	f3af 8000 	nop.w
     212:	2301      	movs	r3, #1
     214:	7023      	strb	r3, [r4, #0]
     216:	bd10      	pop	{r4, pc}
     218:	200001f8 	.word	0x200001f8
     21c:	00000000 	.word	0x00000000
     220:	00006f14 	.word	0x00006f14

00000224 <frame_dummy>:
     224:	b508      	push	{r3, lr}
     226:	4b03      	ldr	r3, [pc, #12]	; (234 <frame_dummy+0x10>)
     228:	b11b      	cbz	r3, 232 <frame_dummy+0xe>
     22a:	4903      	ldr	r1, [pc, #12]	; (238 <frame_dummy+0x14>)
     22c:	4803      	ldr	r0, [pc, #12]	; (23c <frame_dummy+0x18>)
     22e:	f3af 8000 	nop.w
     232:	bd08      	pop	{r3, pc}
     234:	00000000 	.word	0x00000000
     238:	200001fc 	.word	0x200001fc
     23c:	00006f14 	.word	0x00006f14

00000240 <_stack_init>:
     240:	f5a3 3a80 	sub.w	sl, r3, #65536	; 0x10000
     244:	4770      	bx	lr
     246:	bf00      	nop

00000248 <_mainCRTStartup>:
     248:	4b17      	ldr	r3, [pc, #92]	; (2a8 <_mainCRTStartup+0x60>)
     24a:	2b00      	cmp	r3, #0
     24c:	bf08      	it	eq
     24e:	4b13      	ldreq	r3, [pc, #76]	; (29c <_mainCRTStartup+0x54>)
     250:	469d      	mov	sp, r3
     252:	f7ff fff5 	bl	240 <_stack_init>
     256:	2100      	movs	r1, #0
     258:	468b      	mov	fp, r1
     25a:	460f      	mov	r7, r1
     25c:	4813      	ldr	r0, [pc, #76]	; (2ac <_mainCRTStartup+0x64>)
     25e:	4a14      	ldr	r2, [pc, #80]	; (2b0 <_mainCRTStartup+0x68>)
     260:	1a12      	subs	r2, r2, r0
     262:	f003 f941 	bl	34e8 <memset>
     266:	4b0e      	ldr	r3, [pc, #56]	; (2a0 <_mainCRTStartup+0x58>)
     268:	2b00      	cmp	r3, #0
     26a:	d000      	beq.n	26e <_mainCRTStartup+0x26>
     26c:	4798      	blx	r3
     26e:	4b0d      	ldr	r3, [pc, #52]	; (2a4 <_mainCRTStartup+0x5c>)
     270:	2b00      	cmp	r3, #0
     272:	d000      	beq.n	276 <_mainCRTStartup+0x2e>
     274:	4798      	blx	r3
     276:	2000      	movs	r0, #0
     278:	2100      	movs	r1, #0
     27a:	0004      	movs	r4, r0
     27c:	000d      	movs	r5, r1
     27e:	480d      	ldr	r0, [pc, #52]	; (2b4 <_mainCRTStartup+0x6c>)
     280:	2800      	cmp	r0, #0
     282:	d002      	beq.n	28a <_mainCRTStartup+0x42>
     284:	480c      	ldr	r0, [pc, #48]	; (2b8 <_mainCRTStartup+0x70>)
     286:	f3af 8000 	nop.w
     28a:	f003 f8fb 	bl	3484 <__libc_init_array>
     28e:	0020      	movs	r0, r4
     290:	0029      	movs	r1, r5
     292:	f002 fea1 	bl	2fd8 <main>
     296:	f003 f8e1 	bl	345c <exit>
     29a:	bf00      	nop
     29c:	00080000 	.word	0x00080000
	...
     2a8:	20010000 	.word	0x20010000
     2ac:	200001f8 	.word	0x200001f8
     2b0:	200008c4 	.word	0x200008c4
	...

000002bc <Reset_Handler>:
     2bc:	4906      	ldr	r1, [pc, #24]	; (2d8 <Reset_Handler+0x1c>)
     2be:	4a07      	ldr	r2, [pc, #28]	; (2dc <Reset_Handler+0x20>)
     2c0:	4b07      	ldr	r3, [pc, #28]	; (2e0 <Reset_Handler+0x24>)
     2c2:	1a9b      	subs	r3, r3, r2
     2c4:	dd03      	ble.n	2ce <Reset_Handler+0x12>
     2c6:	3b04      	subs	r3, #4
     2c8:	58c8      	ldr	r0, [r1, r3]
     2ca:	50d0      	str	r0, [r2, r3]
     2cc:	dcfb      	bgt.n	2c6 <Reset_Handler+0xa>
     2ce:	f002 fe8b 	bl	2fe8 <SystemInit>
     2d2:	f7ff ffb9 	bl	248 <_mainCRTStartup>
     2d6:	0000      	.short	0x0000
     2d8:	00006f7c 	.word	0x00006f7c
     2dc:	20000000 	.word	0x20000000
     2e0:	200001f8 	.word	0x200001f8

000002e4 <NMI_Handler>:
     2e4:	e7fe      	b.n	2e4 <NMI_Handler>

000002e6 <HardFault_Handler>:
     2e6:	e7fe      	b.n	2e6 <HardFault_Handler>

000002e8 <MemoryManagement_Handler>:
     2e8:	e7fe      	b.n	2e8 <MemoryManagement_Handler>

000002ea <BusFault_Handler>:
     2ea:	e7fe      	b.n	2ea <BusFault_Handler>

000002ec <UsageFault_Handler>:
     2ec:	e7fe      	b.n	2ec <UsageFault_Handler>

000002ee <SVC_Handler>:
     2ee:	e7fe      	b.n	2ee <SVC_Handler>

000002f0 <DebugMon_Handler>:
     2f0:	e7fe      	b.n	2f0 <DebugMon_Handler>

000002f2 <PendSV_Handler>:
     2f2:	e7fe      	b.n	2f2 <PendSV_Handler>

000002f4 <SysTick_Handler>:
     2f4:	e7fe      	b.n	2f4 <SysTick_Handler>

000002f6 <Default_Handler>:
     2f6:	e7fe      	b.n	2f6 <Default_Handler>

000002f8 <nrf_log_backend_serial_put>:
     2f8:	b5f0      	push	{r4, r5, r6, r7, lr}
     2fa:	b095      	sub	sp, #84	; 0x54
     2fc:	4608      	mov	r0, r1
     2fe:	2400      	movs	r4, #0
     300:	460e      	mov	r6, r1
     302:	4617      	mov	r7, r2
     304:	461d      	mov	r5, r3
     306:	f001 f8e9 	bl	14dc <nrf_memobj_get>
     30a:	9a1a      	ldr	r2, [sp, #104]	; 0x68
     30c:	920d      	str	r2, [sp, #52]	; 0x34
     30e:	4623      	mov	r3, r4
     310:	2208      	movs	r2, #8
     312:	a905      	add	r1, sp, #20
     314:	4630      	mov	r0, r6
     316:	e9cd 5409 	strd	r5, r4, [sp, #36]	; 0x24
     31a:	9708      	str	r7, [sp, #32]
     31c:	f88d 402c 	strb.w	r4, [sp, #44]	; 0x2c
     320:	940c      	str	r4, [sp, #48]	; 0x30
     322:	f001 f93f 	bl	15a4 <nrf_memobj_read>
     326:	e9dd 2106 	ldrd	r2, r1, [sp, #24]
     32a:	f89d 3014 	ldrb.w	r3, [sp, #20]
     32e:	f88d 4011 	strb.w	r4, [sp, #17]
     332:	e9cd 1202 	strd	r1, r2, [sp, #8]
     336:	f003 0203 	and.w	r2, r3, #3
     33a:	2a01      	cmp	r2, #1
     33c:	d028      	beq.n	390 <nrf_log_backend_serial_put+0x98>
     33e:	2a02      	cmp	r2, #2
     340:	d004      	beq.n	34c <nrf_log_backend_serial_put+0x54>
     342:	4630      	mov	r0, r6
     344:	f001 f8ce 	bl	14e4 <nrf_memobj_put>
     348:	b015      	add	sp, #84	; 0x54
     34a:	bdf0      	pop	{r4, r5, r6, r7, pc}
     34c:	f8bd 5016 	ldrh.w	r5, [sp, #22]
     350:	f3c3 03c2 	ubfx	r3, r3, #3, #3
     354:	f3c5 1589 	ubfx	r5, r5, #6, #10
     358:	f88d 3010 	strb.w	r3, [sp, #16]
     35c:	2708      	movs	r7, #8
     35e:	2d08      	cmp	r5, #8
     360:	462c      	mov	r4, r5
     362:	bf28      	it	cs
     364:	2408      	movcs	r4, #8
     366:	463b      	mov	r3, r7
     368:	4622      	mov	r2, r4
     36a:	a90e      	add	r1, sp, #56	; 0x38
     36c:	4630      	mov	r0, r6
     36e:	f001 f919 	bl	15a4 <nrf_memobj_read>
     372:	1b2d      	subs	r5, r5, r4
     374:	ab08      	add	r3, sp, #32
     376:	aa02      	add	r2, sp, #8
     378:	4621      	mov	r1, r4
     37a:	a80e      	add	r0, sp, #56	; 0x38
     37c:	4427      	add	r7, r4
     37e:	f000 fb85 	bl	a8c <nrf_log_hexdump_entry_process>
     382:	2d00      	cmp	r5, #0
     384:	d1eb      	bne.n	35e <nrf_log_backend_serial_put+0x66>
     386:	4630      	mov	r0, r6
     388:	f001 f8ac 	bl	14e4 <nrf_memobj_put>
     38c:	b015      	add	sp, #84	; 0x54
     38e:	bdf0      	pop	{r4, r5, r6, r7, pc}
     390:	f8bd 1014 	ldrh.w	r1, [sp, #20]
     394:	9805      	ldr	r0, [sp, #20]
     396:	f3c1 1283 	ubfx	r2, r1, #6, #4
     39a:	f3c3 03c2 	ubfx	r3, r3, #3, #3
     39e:	f3c0 2595 	ubfx	r5, r0, #10, #22
     3a2:	f3c1 1483 	ubfx	r4, r1, #6, #4
     3a6:	f88d 3010 	strb.w	r3, [sp, #16]
     3aa:	a90e      	add	r1, sp, #56	; 0x38
     3ac:	4630      	mov	r0, r6
     3ae:	0092      	lsls	r2, r2, #2
     3b0:	2308      	movs	r3, #8
     3b2:	f001 f8f7 	bl	15a4 <nrf_memobj_read>
     3b6:	ab08      	add	r3, sp, #32
     3b8:	9300      	str	r3, [sp, #0]
     3ba:	4622      	mov	r2, r4
     3bc:	ab02      	add	r3, sp, #8
     3be:	a90e      	add	r1, sp, #56	; 0x38
     3c0:	4628      	mov	r0, r5
     3c2:	f000 faed 	bl	9a0 <nrf_log_std_entry_process>
     3c6:	4630      	mov	r0, r6
     3c8:	f001 f88c 	bl	14e4 <nrf_memobj_put>
     3cc:	b015      	add	sp, #84	; 0x54
     3ce:	bdf0      	pop	{r4, r5, r6, r7, pc}

000003d0 <nrf_log_backend_uart_flush>:
     3d0:	4770      	bx	lr
     3d2:	bf00      	nop

000003d4 <nrf_log_backend_uart_put>:
     3d4:	b500      	push	{lr}
     3d6:	b083      	sub	sp, #12
     3d8:	4b04      	ldr	r3, [pc, #16]	; (3ec <nrf_log_backend_uart_put+0x18>)
     3da:	9300      	str	r3, [sp, #0]
     3dc:	4a04      	ldr	r2, [pc, #16]	; (3f0 <nrf_log_backend_uart_put+0x1c>)
     3de:	2340      	movs	r3, #64	; 0x40
     3e0:	f7ff ff8a 	bl	2f8 <nrf_log_backend_serial_put>
     3e4:	b003      	add	sp, #12
     3e6:	f85d fb04 	ldr.w	pc, [sp], #4
     3ea:	bf00      	nop
     3ec:	000003f5 	.word	0x000003f5
     3f0:	20000218 	.word	0x20000218

000003f4 <serial_tx>:
     3f4:	b538      	push	{r3, r4, r5, lr}
     3f6:	480f      	ldr	r0, [pc, #60]	; (434 <serial_tx+0x40>)
     3f8:	4d0f      	ldr	r5, [pc, #60]	; (438 <serial_tx+0x44>)
     3fa:	7803      	ldrb	r3, [r0, #0]
     3fc:	4c0f      	ldr	r4, [pc, #60]	; (43c <serial_tx+0x48>)
     3fe:	5ceb      	ldrb	r3, [r5, r3]
     400:	f04f 0c00 	mov.w	ip, #0
     404:	f884 c000 	strb.w	ip, [r4]
     408:	b2d2      	uxtb	r2, r2
     40a:	b153      	cbz	r3, 422 <serial_tx+0x2e>
     40c:	3004      	adds	r0, #4
     40e:	f001 fe03 	bl	2018 <nrfx_uarte_tx>
     412:	b958      	cbnz	r0, 42c <serial_tx+0x38>
     414:	4b0a      	ldr	r3, [pc, #40]	; (440 <serial_tx+0x4c>)
     416:	781b      	ldrb	r3, [r3, #0]
     418:	b113      	cbz	r3, 420 <serial_tx+0x2c>
     41a:	7823      	ldrb	r3, [r4, #0]
     41c:	2b00      	cmp	r3, #0
     41e:	d0fc      	beq.n	41a <serial_tx+0x26>
     420:	bd38      	pop	{r3, r4, r5, pc}
     422:	300c      	adds	r0, #12
     424:	f001 fb48 	bl	1ab8 <nrfx_uart_tx>
     428:	2800      	cmp	r0, #0
     42a:	d0f3      	beq.n	414 <serial_tx+0x20>
     42c:	f000 fbb0 	bl	b90 <app_error_handler_bare>
     430:	e7f0      	b.n	414 <serial_tx+0x20>
     432:	bf00      	nop
     434:	20000000 	.word	0x20000000
     438:	200008ac 	.word	0x200008ac
     43c:	20000258 	.word	0x20000258
     440:	20000214 	.word	0x20000214

00000444 <nrf_log_backend_uart_panic_set>:
     444:	b510      	push	{r4, lr}
     446:	4815      	ldr	r0, [pc, #84]	; (49c <nrf_log_backend_uart_panic_set+0x58>)
     448:	4a15      	ldr	r2, [pc, #84]	; (4a0 <nrf_log_backend_uart_panic_set+0x5c>)
     44a:	7803      	ldrb	r3, [r0, #0]
     44c:	5cd3      	ldrb	r3, [r2, r3]
     44e:	b088      	sub	sp, #32
     450:	b1c3      	cbz	r3, 484 <nrf_log_backend_uart_panic_set+0x40>
     452:	3004      	adds	r0, #4
     454:	f001 fd40 	bl	1ed8 <nrfx_uarte_uninit>
     458:	4c12      	ldr	r4, [pc, #72]	; (4a4 <nrf_log_backend_uart_panic_set+0x60>)
     45a:	cc0f      	ldmia	r4!, {r0, r1, r2, r3}
     45c:	46ec      	mov	ip, sp
     45e:	e8ac 000f 	stmia.w	ip!, {r0, r1, r2, r3}
     462:	e894 000f 	ldmia.w	r4, {r0, r1, r2, r3}
     466:	e88c 000f 	stmia.w	ip, {r0, r1, r2, r3}
     46a:	2306      	movs	r3, #6
     46c:	480b      	ldr	r0, [pc, #44]	; (49c <nrf_log_backend_uart_panic_set+0x58>)
     46e:	9300      	str	r3, [sp, #0]
     470:	2200      	movs	r2, #0
     472:	4669      	mov	r1, sp
     474:	f002 ffb8 	bl	33e8 <nrf_drv_uart_init>
     478:	b940      	cbnz	r0, 48c <nrf_log_backend_uart_panic_set+0x48>
     47a:	4b0b      	ldr	r3, [pc, #44]	; (4a8 <nrf_log_backend_uart_panic_set+0x64>)
     47c:	2200      	movs	r2, #0
     47e:	701a      	strb	r2, [r3, #0]
     480:	b008      	add	sp, #32
     482:	bd10      	pop	{r4, pc}
     484:	300c      	adds	r0, #12
     486:	f001 faa9 	bl	19dc <nrfx_uart_uninit>
     48a:	e7e5      	b.n	458 <nrf_log_backend_uart_panic_set+0x14>
     48c:	f000 fb80 	bl	b90 <app_error_handler_bare>
     490:	4b05      	ldr	r3, [pc, #20]	; (4a8 <nrf_log_backend_uart_panic_set+0x64>)
     492:	2200      	movs	r2, #0
     494:	701a      	strb	r2, [r3, #0]
     496:	b008      	add	sp, #32
     498:	bd10      	pop	{r4, pc}
     49a:	bf00      	nop
     49c:	20000000 	.word	0x20000000
     4a0:	200008ac 	.word	0x200008ac
     4a4:	000069a0 	.word	0x000069a0
     4a8:	20000214 	.word	0x20000214

000004ac <log_skip>:
     4ac:	b570      	push	{r4, r5, r6, lr}
     4ae:	4d30      	ldr	r5, [pc, #192]	; (570 <log_skip+0xc4>)
     4b0:	b084      	sub	sp, #16
     4b2:	f505 6083 	add.w	r0, r5, #1048	; 0x418
     4b6:	f000 fbe5 	bl	c84 <nrf_atomic_flag_set>
     4ba:	f205 4014 	addw	r0, r5, #1044	; 0x414
     4be:	f000 fbe1 	bl	c84 <nrf_atomic_flag_set>
     4c2:	68ab      	ldr	r3, [r5, #8]
     4c4:	b2da      	uxtb	r2, r3
     4c6:	1cd1      	adds	r1, r2, #3
     4c8:	eb05 0081 	add.w	r0, r5, r1, lsl #2
     4cc:	f815 1021 	ldrb.w	r1, [r5, r1, lsl #2]
     4d0:	074c      	lsls	r4, r1, #29
     4d2:	d510      	bpl.n	4f6 <log_skip+0x4a>
     4d4:	f001 0404 	and.w	r4, r1, #4
     4d8:	7801      	ldrb	r1, [r0, #0]
     4da:	f001 0103 	and.w	r1, r1, #3
     4de:	2901      	cmp	r1, #1
     4e0:	d038      	beq.n	554 <log_skip+0xa8>
     4e2:	2902      	cmp	r1, #2
     4e4:	f103 0602 	add.w	r6, r3, #2
     4e8:	f102 0103 	add.w	r1, r2, #3
     4ec:	d026      	beq.n	53c <log_skip+0x90>
     4ee:	eb05 0081 	add.w	r0, r5, r1, lsl #2
     4f2:	2c00      	cmp	r4, #0
     4f4:	d1f0      	bne.n	4d8 <log_skip+0x2c>
     4f6:	eb05 0182 	add.w	r1, r5, r2, lsl #2
     4fa:	1c5a      	adds	r2, r3, #1
     4fc:	68c8      	ldr	r0, [r1, #12]
     4fe:	9001      	str	r0, [sp, #4]
     500:	b2d2      	uxtb	r2, r2
     502:	eb05 0282 	add.w	r2, r5, r2, lsl #2
     506:	f000 0103 	and.w	r1, r0, #3
     50a:	2901      	cmp	r1, #1
     50c:	68d6      	ldr	r6, [r2, #12]
     50e:	f103 0402 	add.w	r4, r3, #2
     512:	d025      	beq.n	560 <log_skip+0xb4>
     514:	2902      	cmp	r1, #2
     516:	d10f      	bne.n	538 <log_skip+0x8c>
     518:	f8bd 3006 	ldrh.w	r3, [sp, #6]
     51c:	f3c3 1389 	ubfx	r3, r3, #6, #10
     520:	3303      	adds	r3, #3
     522:	0c36      	lsrs	r6, r6, #16
     524:	eb04 0493 	add.w	r4, r4, r3, lsr #2
     528:	4812      	ldr	r0, [pc, #72]	; (574 <log_skip+0xc8>)
     52a:	f000 fbb7 	bl	c9c <nrf_atomic_flag_clear_fetch>
     52e:	b100      	cbz	r0, 532 <log_skip+0x86>
     530:	60ac      	str	r4, [r5, #8]
     532:	4630      	mov	r0, r6
     534:	b004      	add	sp, #16
     536:	bd70      	pop	{r4, r5, r6, pc}
     538:	2600      	movs	r6, #0
     53a:	e7f5      	b.n	528 <log_skip+0x7c>
     53c:	8843      	ldrh	r3, [r0, #2]
     53e:	eb06 1393 	add.w	r3, r6, r3, lsr #6
     542:	b2da      	uxtb	r2, r3
     544:	1cd1      	adds	r1, r2, #3
     546:	eb05 0081 	add.w	r0, r5, r1, lsl #2
     54a:	f815 1021 	ldrb.w	r1, [r5, r1, lsl #2]
     54e:	f001 0404 	and.w	r4, r1, #4
     552:	e7ce      	b.n	4f2 <log_skip+0x46>
     554:	8802      	ldrh	r2, [r0, #0]
     556:	3302      	adds	r3, #2
     558:	f3c2 1283 	ubfx	r2, r2, #6, #4
     55c:	4413      	add	r3, r2
     55e:	e7f0      	b.n	542 <log_skip+0x96>
     560:	f8bd 3004 	ldrh.w	r3, [sp, #4]
     564:	f3c3 1383 	ubfx	r3, r3, #6, #4
     568:	0c36      	lsrs	r6, r6, #16
     56a:	441c      	add	r4, r3
     56c:	e7dc      	b.n	528 <log_skip+0x7c>
     56e:	bf00      	nop
     570:	2000032c 	.word	0x2000032c
     574:	20000740 	.word	0x20000740

00000578 <nrf_log_module_name_get>:
     578:	b430      	push	{r4, r5}
     57a:	b199      	cbz	r1, 5a4 <nrf_log_module_name_get+0x2c>
     57c:	490d      	ldr	r1, [pc, #52]	; (5b4 <nrf_log_module_name_get+0x3c>)
     57e:	4d0e      	ldr	r5, [pc, #56]	; (5b8 <nrf_log_module_name_get+0x40>)
     580:	1b49      	subs	r1, r1, r5
     582:	08c9      	lsrs	r1, r1, #3
     584:	d013      	beq.n	5ae <nrf_log_module_name_get+0x36>
     586:	4c0d      	ldr	r4, [pc, #52]	; (5bc <nrf_log_module_name_get+0x44>)
     588:	2300      	movs	r3, #0
     58a:	e002      	b.n	592 <nrf_log_module_name_get+0x1a>
     58c:	3301      	adds	r3, #1
     58e:	4299      	cmp	r1, r3
     590:	d00a      	beq.n	5a8 <nrf_log_module_name_get+0x30>
     592:	f834 2023 	ldrh.w	r2, [r4, r3, lsl #2]
     596:	4282      	cmp	r2, r0
     598:	d1f8      	bne.n	58c <nrf_log_module_name_get+0x14>
     59a:	4618      	mov	r0, r3
     59c:	f855 0030 	ldr.w	r0, [r5, r0, lsl #3]
     5a0:	bc30      	pop	{r4, r5}
     5a2:	4770      	bx	lr
     5a4:	4d04      	ldr	r5, [pc, #16]	; (5b8 <nrf_log_module_name_get+0x40>)
     5a6:	e7f9      	b.n	59c <nrf_log_module_name_get+0x24>
     5a8:	2000      	movs	r0, #0
     5aa:	bc30      	pop	{r4, r5}
     5ac:	4770      	bx	lr
     5ae:	4608      	mov	r0, r1
     5b0:	e7f6      	b.n	5a0 <nrf_log_module_name_get+0x28>
     5b2:	bf00      	nop
     5b4:	00006f50 	.word	0x00006f50
     5b8:	00006f18 	.word	0x00006f18
     5bc:	200001f8 	.word	0x200001f8

000005c0 <nrf_log_color_id_get>:
     5c0:	4b09      	ldr	r3, [pc, #36]	; (5e8 <nrf_log_color_id_get+0x28>)
     5c2:	3901      	subs	r1, #1
     5c4:	eb03 00c0 	add.w	r0, r3, r0, lsl #3
     5c8:	2903      	cmp	r1, #3
     5ca:	d80b      	bhi.n	5e4 <nrf_log_color_id_get+0x24>
     5cc:	e8df f001 	tbb	[pc, r1]
     5d0:	06080204 	.word	0x06080204
     5d4:	2004      	movs	r0, #4
     5d6:	4770      	bx	lr
     5d8:	2002      	movs	r0, #2
     5da:	4770      	bx	lr
     5dc:	7940      	ldrb	r0, [r0, #5]
     5de:	4770      	bx	lr
     5e0:	7900      	ldrb	r0, [r0, #4]
     5e2:	4770      	bx	lr
     5e4:	2000      	movs	r0, #0
     5e6:	4770      	bx	lr
     5e8:	00006f18 	.word	0x00006f18

000005ec <nrf_log_frontend_dequeue>:
     5ec:	e92d 43f0 	stmdb	sp!, {r4, r5, r6, r7, r8, r9, lr}
     5f0:	4c8e      	ldr	r4, [pc, #568]	; (82c <nrf_log_frontend_dequeue+0x240>)
     5f2:	e9d4 2301 	ldrd	r2, r3, [r4, #4]
     5f6:	429a      	cmp	r2, r3
     5f8:	b085      	sub	sp, #20
     5fa:	d060      	beq.n	6be <nrf_log_frontend_dequeue+0xd2>
     5fc:	2300      	movs	r3, #0
     5fe:	f8c4 3418 	str.w	r3, [r4, #1048]	; 0x418
     602:	f3bf 8f4f 	dsb	sy
     606:	68a5      	ldr	r5, [r4, #8]
     608:	b2ea      	uxtb	r2, r5
     60a:	1cd3      	adds	r3, r2, #3
     60c:	eb04 0183 	add.w	r1, r4, r3, lsl #2
     610:	f814 3023 	ldrb.w	r3, [r4, r3, lsl #2]
     614:	0758      	lsls	r0, r3, #29
     616:	d518      	bpl.n	64a <nrf_log_frontend_dequeue+0x5e>
     618:	6866      	ldr	r6, [r4, #4]
     61a:	780b      	ldrb	r3, [r1, #0]
     61c:	f003 0303 	and.w	r3, r3, #3
     620:	2b01      	cmp	r3, #1
     622:	d042      	beq.n	6aa <nrf_log_frontend_dequeue+0xbe>
     624:	2b02      	cmp	r3, #2
     626:	d103      	bne.n	630 <nrf_log_frontend_dequeue+0x44>
     628:	884b      	ldrh	r3, [r1, #2]
     62a:	3502      	adds	r5, #2
     62c:	eb05 1593 	add.w	r5, r5, r3, lsr #6
     630:	b2ea      	uxtb	r2, r5
     632:	f8d4 0418 	ldr.w	r0, [r4, #1048]	; 0x418
     636:	1cd3      	adds	r3, r2, #3
     638:	eb04 0183 	add.w	r1, r4, r3, lsl #2
     63c:	b928      	cbnz	r0, 64a <nrf_log_frontend_dequeue+0x5e>
     63e:	42ae      	cmp	r6, r5
     640:	d939      	bls.n	6b6 <nrf_log_frontend_dequeue+0xca>
     642:	f814 3023 	ldrb.w	r3, [r4, r3, lsl #2]
     646:	075b      	lsls	r3, r3, #29
     648:	d4e7      	bmi.n	61a <nrf_log_frontend_dequeue+0x2e>
     64a:	eb04 0282 	add.w	r2, r4, r2, lsl #2
     64e:	1c6b      	adds	r3, r5, #1
     650:	b2db      	uxtb	r3, r3
     652:	68d2      	ldr	r2, [r2, #12]
     654:	eb04 0383 	add.w	r3, r4, r3, lsl #2
     658:	f002 0103 	and.w	r1, r2, #3
     65c:	68db      	ldr	r3, [r3, #12]
     65e:	2902      	cmp	r1, #2
     660:	e9cd 2301 	strd	r2, r3, [sp, #4]
     664:	f105 0602 	add.w	r6, r5, #2
     668:	d02d      	beq.n	6c6 <nrf_log_frontend_dequeue+0xda>
     66a:	2901      	cmp	r1, #1
     66c:	f000 808d 	beq.w	78a <nrf_log_frontend_dequeue+0x19e>
     670:	f8d4 5410 	ldr.w	r5, [r4, #1040]	; 0x410
     674:	b13d      	cbz	r5, 686 <nrf_log_frontend_dequeue+0x9a>
     676:	682b      	ldr	r3, [r5, #0]
     678:	4628      	mov	r0, r5
     67a:	689b      	ldr	r3, [r3, #8]
     67c:	4798      	blx	r3
     67e:	68eb      	ldr	r3, [r5, #12]
     680:	681d      	ldr	r5, [r3, #0]
     682:	2d00      	cmp	r5, #0
     684:	d1f7      	bne.n	676 <nrf_log_frontend_dequeue+0x8a>
     686:	486a      	ldr	r0, [pc, #424]	; (830 <nrf_log_frontend_dequeue+0x244>)
     688:	4b6a      	ldr	r3, [pc, #424]	; (834 <nrf_log_frontend_dequeue+0x248>)
     68a:	496b      	ldr	r1, [pc, #428]	; (838 <nrf_log_frontend_dequeue+0x24c>)
     68c:	1ac0      	subs	r0, r0, r3
     68e:	08c0      	lsrs	r0, r0, #3
     690:	0400      	lsls	r0, r0, #16
     692:	f040 0002 	orr.w	r0, r0, #2
     696:	f000 f8d5 	bl	844 <nrf_log_frontend_std_0>
     69a:	e9d4 3001 	ldrd	r3, r0, [r4, #4]
     69e:	1ac0      	subs	r0, r0, r3
     6a0:	bf18      	it	ne
     6a2:	2001      	movne	r0, #1
     6a4:	b005      	add	sp, #20
     6a6:	e8bd 83f0 	ldmia.w	sp!, {r4, r5, r6, r7, r8, r9, pc}
     6aa:	880b      	ldrh	r3, [r1, #0]
     6ac:	3502      	adds	r5, #2
     6ae:	f3c3 1383 	ubfx	r3, r3, #6, #4
     6b2:	441d      	add	r5, r3
     6b4:	e7bc      	b.n	630 <nrf_log_frontend_dequeue+0x44>
     6b6:	60a6      	str	r6, [r4, #8]
     6b8:	b005      	add	sp, #20
     6ba:	e8bd 83f0 	ldmia.w	sp!, {r4, r5, r6, r7, r8, r9, pc}
     6be:	2000      	movs	r0, #0
     6c0:	b005      	add	sp, #20
     6c2:	e8bd 83f0 	ldmia.w	sp!, {r4, r5, r6, r7, r8, r9, pc}
     6c6:	f8bd 3006 	ldrh.w	r3, [sp, #6]
     6ca:	485c      	ldr	r0, [pc, #368]	; (83c <nrf_log_frontend_dequeue+0x250>)
     6cc:	f3c3 1889 	ubfx	r8, r3, #6, #10
     6d0:	4645      	mov	r5, r8
     6d2:	2d50      	cmp	r5, #80	; 0x50
     6d4:	bf28      	it	cs
     6d6:	2550      	movcs	r5, #80	; 0x50
     6d8:	f105 0108 	add.w	r1, r5, #8
     6dc:	f365 138f 	bfi	r3, r5, #6, #10
     6e0:	f3c1 0109 	ubfx	r1, r1, #0, #10
     6e4:	f8ad 3006 	strh.w	r3, [sp, #6]
     6e8:	f000 feae 	bl	1448 <nrf_memobj_alloc>
     6ec:	4607      	mov	r7, r0
     6ee:	2800      	cmp	r0, #0
     6f0:	d0be      	beq.n	670 <nrf_log_frontend_dequeue+0x84>
     6f2:	f000 fef3 	bl	14dc <nrf_memobj_get>
     6f6:	2300      	movs	r3, #0
     6f8:	2208      	movs	r2, #8
     6fa:	a901      	add	r1, sp, #4
     6fc:	4638      	mov	r0, r7
     6fe:	f000 ff1d 	bl	153c <nrf_memobj_write>
     702:	43f3      	mvns	r3, r6
     704:	b2db      	uxtb	r3, r3
     706:	3301      	adds	r3, #1
     708:	ebb5 0f83 	cmp.w	r5, r3, lsl #2
     70c:	ea4f 0283 	mov.w	r2, r3, lsl #2
     710:	d979      	bls.n	806 <nrf_log_frontend_dequeue+0x21a>
     712:	b2f1      	uxtb	r1, r6
     714:	fa5f f982 	uxtb.w	r9, r2
     718:	3103      	adds	r1, #3
     71a:	eb04 0181 	add.w	r1, r4, r1, lsl #2
     71e:	4638      	mov	r0, r7
     720:	2308      	movs	r3, #8
     722:	eba5 0509 	sub.w	r5, r5, r9
     726:	f000 ff09 	bl	153c <nrf_memobj_write>
     72a:	b2ed      	uxtb	r5, r5
     72c:	f109 0308 	add.w	r3, r9, #8
     730:	4943      	ldr	r1, [pc, #268]	; (840 <nrf_log_frontend_dequeue+0x254>)
     732:	f003 03fc 	and.w	r3, r3, #252	; 0xfc
     736:	462a      	mov	r2, r5
     738:	4638      	mov	r0, r7
     73a:	f000 feff 	bl	153c <nrf_memobj_write>
     73e:	f108 0803 	add.w	r8, r8, #3
     742:	eb06 0698 	add.w	r6, r6, r8, lsr #2
     746:	f8d4 3418 	ldr.w	r3, [r4, #1048]	; 0x418
     74a:	2b00      	cmp	r3, #0
     74c:	d169      	bne.n	822 <nrf_log_frontend_dequeue+0x236>
     74e:	f8d4 5410 	ldr.w	r5, [r4, #1040]	; 0x410
     752:	b165      	cbz	r5, 76e <nrf_log_frontend_dequeue+0x182>
     754:	68eb      	ldr	r3, [r5, #12]
     756:	795a      	ldrb	r2, [r3, #5]
     758:	4628      	mov	r0, r5
     75a:	4639      	mov	r1, r7
     75c:	2a00      	cmp	r2, #0
     75e:	d05c      	beq.n	81a <nrf_log_frontend_dequeue+0x22e>
     760:	682b      	ldr	r3, [r5, #0]
     762:	681b      	ldr	r3, [r3, #0]
     764:	4798      	blx	r3
     766:	68eb      	ldr	r3, [r5, #12]
     768:	681d      	ldr	r5, [r3, #0]
     76a:	2d00      	cmp	r5, #0
     76c:	d1f2      	bne.n	754 <nrf_log_frontend_dequeue+0x168>
     76e:	4638      	mov	r0, r7
     770:	f000 feb8 	bl	14e4 <nrf_memobj_put>
     774:	2000      	movs	r0, #0
     776:	f000 fa51 	bl	c1c <app_util_critical_region_enter>
     77a:	f8d4 3418 	ldr.w	r3, [r4, #1048]	; 0x418
     77e:	b903      	cbnz	r3, 782 <nrf_log_frontend_dequeue+0x196>
     780:	60a6      	str	r6, [r4, #8]
     782:	2000      	movs	r0, #0
     784:	f000 fa52 	bl	c2c <app_util_critical_region_exit>
     788:	e787      	b.n	69a <nrf_log_frontend_dequeue+0xae>
     78a:	f8bd 2004 	ldrh.w	r2, [sp, #4]
     78e:	482b      	ldr	r0, [pc, #172]	; (83c <nrf_log_frontend_dequeue+0x250>)
     790:	f3c2 1383 	ubfx	r3, r2, #6, #4
     794:	2b06      	cmp	r3, #6
     796:	bf28      	it	cs
     798:	2306      	movcs	r3, #6
     79a:	f363 1289 	bfi	r2, r3, #6, #4
     79e:	3302      	adds	r3, #2
     7a0:	f003 010f 	and.w	r1, r3, #15
     7a4:	0089      	lsls	r1, r1, #2
     7a6:	f8ad 2004 	strh.w	r2, [sp, #4]
     7aa:	f000 fe4d 	bl	1448 <nrf_memobj_alloc>
     7ae:	4607      	mov	r7, r0
     7b0:	2800      	cmp	r0, #0
     7b2:	f43f af5d 	beq.w	670 <nrf_log_frontend_dequeue+0x84>
     7b6:	f000 fe91 	bl	14dc <nrf_memobj_get>
     7ba:	2300      	movs	r3, #0
     7bc:	2208      	movs	r2, #8
     7be:	a901      	add	r1, sp, #4
     7c0:	4638      	mov	r0, r7
     7c2:	f000 febb 	bl	153c <nrf_memobj_write>
     7c6:	f8bd 3004 	ldrh.w	r3, [sp, #4]
     7ca:	f413 7f70 	tst.w	r3, #960	; 0x3c0
     7ce:	d0ba      	beq.n	746 <nrf_log_frontend_dequeue+0x15a>
     7d0:	f06f 0901 	mvn.w	r9, #1
     7d4:	f04f 0808 	mov.w	r8, #8
     7d8:	eba9 0905 	sub.w	r9, r9, r5
     7dc:	b2f1      	uxtb	r1, r6
     7de:	3103      	adds	r1, #3
     7e0:	4643      	mov	r3, r8
     7e2:	2204      	movs	r2, #4
     7e4:	eb04 0181 	add.w	r1, r4, r1, lsl #2
     7e8:	4638      	mov	r0, r7
     7ea:	f000 fea7 	bl	153c <nrf_memobj_write>
     7ee:	f8bd 3004 	ldrh.w	r3, [sp, #4]
     7f2:	3601      	adds	r6, #1
     7f4:	f3c3 1383 	ubfx	r3, r3, #6, #4
     7f8:	eb09 0206 	add.w	r2, r9, r6
     7fc:	4293      	cmp	r3, r2
     7fe:	f108 0804 	add.w	r8, r8, #4
     802:	d8eb      	bhi.n	7dc <nrf_log_frontend_dequeue+0x1f0>
     804:	e79f      	b.n	746 <nrf_log_frontend_dequeue+0x15a>
     806:	b2f1      	uxtb	r1, r6
     808:	3103      	adds	r1, #3
     80a:	462a      	mov	r2, r5
     80c:	eb04 0181 	add.w	r1, r4, r1, lsl #2
     810:	2308      	movs	r3, #8
     812:	4638      	mov	r0, r7
     814:	f000 fe92 	bl	153c <nrf_memobj_write>
     818:	e791      	b.n	73e <nrf_log_frontend_dequeue+0x152>
     81a:	681d      	ldr	r5, [r3, #0]
     81c:	2d00      	cmp	r5, #0
     81e:	d199      	bne.n	754 <nrf_log_frontend_dequeue+0x168>
     820:	e7a5      	b.n	76e <nrf_log_frontend_dequeue+0x182>
     822:	4638      	mov	r0, r7
     824:	f000 fe5e 	bl	14e4 <nrf_memobj_put>
     828:	e737      	b.n	69a <nrf_log_frontend_dequeue+0xae>
     82a:	bf00      	nop
     82c:	2000032c 	.word	0x2000032c
     830:	00006f48 	.word	0x00006f48
     834:	00006f18 	.word	0x00006f18
     838:	000069e0 	.word	0x000069e0
     83c:	00006f60 	.word	0x00006f60
     840:	20000338 	.word	0x20000338

00000844 <nrf_log_frontend_std_0>:
     844:	e92d 41f0 	stmdb	sp!, {r4, r5, r6, r7, r8, lr}
     848:	4c28      	ldr	r4, [pc, #160]	; (8ec <nrf_log_frontend_std_0+0xa8>)
     84a:	4606      	mov	r6, r0
     84c:	2000      	movs	r0, #0
     84e:	4688      	mov	r8, r1
     850:	f000 f9e4 	bl	c1c <app_util_critical_region_enter>
     854:	e9d4 7301 	ldrd	r7, r3, [r4, #4]
     858:	f503 7380 	add.w	r3, r3, #256	; 0x100
     85c:	1bdb      	subs	r3, r3, r7
     85e:	2b01      	cmp	r3, #1
     860:	d842      	bhi.n	8e8 <nrf_log_frontend_std_0+0xa4>
     862:	f204 451c 	addw	r5, r4, #1052	; 0x41c
     866:	2101      	movs	r1, #1
     868:	4628      	mov	r0, r5
     86a:	f000 f9f3 	bl	c54 <nrf_atomic_u32_add>
     86e:	f7ff fe1d 	bl	4ac <log_skip>
     872:	4601      	mov	r1, r0
     874:	4628      	mov	r0, r5
     876:	f000 f9ed 	bl	c54 <nrf_atomic_u32_add>
     87a:	e9d4 2301 	ldrd	r2, r3, [r4, #4]
     87e:	f503 7380 	add.w	r3, r3, #256	; 0x100
     882:	1a9b      	subs	r3, r3, r2
     884:	2b01      	cmp	r3, #1
     886:	d9ee      	bls.n	866 <nrf_log_frontend_std_0+0x22>
     888:	b2d3      	uxtb	r3, r2
     88a:	3303      	adds	r3, #3
     88c:	3202      	adds	r2, #2
     88e:	2105      	movs	r1, #5
     890:	2000      	movs	r0, #0
     892:	f844 1023 	str.w	r1, [r4, r3, lsl #2]
     896:	6062      	str	r2, [r4, #4]
     898:	f000 f9c8 	bl	c2c <app_util_critical_region_exit>
     89c:	2100      	movs	r1, #0
     89e:	4814      	ldr	r0, [pc, #80]	; (8f0 <nrf_log_frontend_std_0+0xac>)
     8a0:	f000 f9ce 	bl	c40 <nrf_atomic_u32_fetch_store>
     8a4:	f380 0310 	usat	r3, #16, r0
     8a8:	1c7a      	adds	r2, r7, #1
     8aa:	00f1      	lsls	r1, r6, #3
     8ac:	f001 0138 	and.w	r1, r1, #56	; 0x38
     8b0:	b2d2      	uxtb	r2, r2
     8b2:	b2ff      	uxtb	r7, r7
     8b4:	041b      	lsls	r3, r3, #16
     8b6:	f041 0101 	orr.w	r1, r1, #1
     8ba:	eb04 0282 	add.w	r2, r4, r2, lsl #2
     8be:	3703      	adds	r7, #3
     8c0:	ea43 4316 	orr.w	r3, r3, r6, lsr #16
     8c4:	ea41 2188 	orr.w	r1, r1, r8, lsl #10
     8c8:	60d3      	str	r3, [r2, #12]
     8ca:	f844 1027 	str.w	r1, [r4, r7, lsl #2]
     8ce:	7823      	ldrb	r3, [r4, #0]
     8d0:	b90b      	cbnz	r3, 8d6 <nrf_log_frontend_std_0+0x92>
     8d2:	e8bd 81f0 	ldmia.w	sp!, {r4, r5, r6, r7, r8, pc}
     8d6:	f7ff fe89 	bl	5ec <nrf_log_frontend_dequeue>
     8da:	2800      	cmp	r0, #0
     8dc:	d0f9      	beq.n	8d2 <nrf_log_frontend_std_0+0x8e>
     8de:	f7ff fe85 	bl	5ec <nrf_log_frontend_dequeue>
     8e2:	2800      	cmp	r0, #0
     8e4:	d1f7      	bne.n	8d6 <nrf_log_frontend_std_0+0x92>
     8e6:	e7f4      	b.n	8d2 <nrf_log_frontend_std_0+0x8e>
     8e8:	463a      	mov	r2, r7
     8ea:	e7cd      	b.n	888 <nrf_log_frontend_std_0+0x44>
     8ec:	2000032c 	.word	0x2000032c
     8f0:	20000748 	.word	0x20000748

000008f4 <nrf_log_panic>:
     8f4:	b538      	push	{r3, r4, r5, lr}
     8f6:	4b08      	ldr	r3, [pc, #32]	; (918 <nrf_log_panic+0x24>)
     8f8:	f8d3 4410 	ldr.w	r4, [r3, #1040]	; 0x410
     8fc:	2501      	movs	r5, #1
     8fe:	701d      	strb	r5, [r3, #0]
     900:	b14c      	cbz	r4, 916 <nrf_log_panic+0x22>
     902:	68e3      	ldr	r3, [r4, #12]
     904:	715d      	strb	r5, [r3, #5]
     906:	6823      	ldr	r3, [r4, #0]
     908:	4620      	mov	r0, r4
     90a:	685b      	ldr	r3, [r3, #4]
     90c:	4798      	blx	r3
     90e:	68e3      	ldr	r3, [r4, #12]
     910:	681c      	ldr	r4, [r3, #0]
     912:	2c00      	cmp	r4, #0
     914:	d1f5      	bne.n	902 <nrf_log_panic+0xe>
     916:	bd38      	pop	{r3, r4, r5, pc}
     918:	2000032c 	.word	0x2000032c

0000091c <prefix_process>:
     91c:	b530      	push	{r4, r5, lr}
     91e:	88c3      	ldrh	r3, [r0, #6]
     920:	b085      	sub	sp, #20
     922:	4604      	mov	r4, r0
     924:	460d      	mov	r5, r1
     926:	bb23      	cbnz	r3, 972 <prefix_process+0x56>
     928:	7a23      	ldrb	r3, [r4, #8]
     92a:	2b05      	cmp	r3, #5
     92c:	d01f      	beq.n	96e <prefix_process+0x52>
     92e:	7a62      	ldrb	r2, [r4, #9]
     930:	b982      	cbnz	r2, 954 <prefix_process+0x38>
     932:	4a14      	ldr	r2, [pc, #80]	; (984 <prefix_process+0x68>)
     934:	88a0      	ldrh	r0, [r4, #4]
     936:	f852 2023 	ldr.w	r2, [r2, r3, lsl #2]
     93a:	9203      	str	r2, [sp, #12]
     93c:	2100      	movs	r1, #0
     93e:	f7ff fe1b 	bl	578 <nrf_log_module_name_get>
     942:	9a03      	ldr	r2, [sp, #12]
     944:	4910      	ldr	r1, [pc, #64]	; (988 <prefix_process+0x6c>)
     946:	4603      	mov	r3, r0
     948:	4628      	mov	r0, r5
     94a:	b005      	add	sp, #20
     94c:	e8bd 4030 	ldmia.w	sp!, {r4, r5, lr}
     950:	f000 b9f8 	b.w	d44 <nrf_fprintf>
     954:	4619      	mov	r1, r3
     956:	88a0      	ldrh	r0, [r4, #4]
     958:	f7ff fe32 	bl	5c0 <nrf_log_color_id_get>
     95c:	4b0b      	ldr	r3, [pc, #44]	; (98c <prefix_process+0x70>)
     95e:	490c      	ldr	r1, [pc, #48]	; (990 <prefix_process+0x74>)
     960:	f853 2020 	ldr.w	r2, [r3, r0, lsl #2]
     964:	4628      	mov	r0, r5
     966:	f000 f9ed 	bl	d44 <nrf_fprintf>
     96a:	7a23      	ldrb	r3, [r4, #8]
     96c:	e7e1      	b.n	932 <prefix_process+0x16>
     96e:	b005      	add	sp, #20
     970:	bd30      	pop	{r4, r5, pc}
     972:	4908      	ldr	r1, [pc, #32]	; (994 <prefix_process+0x78>)
     974:	9100      	str	r1, [sp, #0]
     976:	4a08      	ldr	r2, [pc, #32]	; (998 <prefix_process+0x7c>)
     978:	4908      	ldr	r1, [pc, #32]	; (99c <prefix_process+0x80>)
     97a:	4628      	mov	r0, r5
     97c:	f000 f9e2 	bl	d44 <nrf_fprintf>
     980:	e7d2      	b.n	928 <prefix_process+0xc>
     982:	bf00      	nop
     984:	00006ac4 	.word	0x00006ac4
     988:	00006a24 	.word	0x00006a24
     98c:	00006aa0 	.word	0x00006aa0
     990:	00006a20 	.word	0x00006a20
     994:	00006a18 	.word	0x00006a18
     998:	000069f8 	.word	0x000069f8
     99c:	00006a00 	.word	0x00006a00

000009a0 <nrf_log_std_entry_process>:
     9a0:	e92d 43f0 	stmdb	sp!, {r4, r5, r6, r7, r8, r9, lr}
     9a4:	b085      	sub	sp, #20
     9a6:	461d      	mov	r5, r3
     9a8:	9c0c      	ldr	r4, [sp, #48]	; 0x30
     9aa:	2300      	movs	r3, #0
     9ac:	f894 900c 	ldrb.w	r9, [r4, #12]
     9b0:	7323      	strb	r3, [r4, #12]
     9b2:	4680      	mov	r8, r0
     9b4:	460e      	mov	r6, r1
     9b6:	4617      	mov	r7, r2
     9b8:	4621      	mov	r1, r4
     9ba:	4628      	mov	r0, r5
     9bc:	f7ff ffae 	bl	91c <prefix_process>
     9c0:	2f06      	cmp	r7, #6
     9c2:	d809      	bhi.n	9d8 <nrf_log_std_entry_process+0x38>
     9c4:	e8df f007 	tbb	[pc, r7]
     9c8:	3b342e04 	.word	0x3b342e04
     9cc:	4f44      	.short	0x4f44
     9ce:	1f          	.byte	0x1f
     9cf:	00          	.byte	0x00
     9d0:	4641      	mov	r1, r8
     9d2:	4620      	mov	r0, r4
     9d4:	f000 f9b6 	bl	d44 <nrf_fprintf>
     9d8:	7a2b      	ldrb	r3, [r5, #8]
     9da:	2b05      	cmp	r3, #5
     9dc:	d005      	beq.n	9ea <nrf_log_std_entry_process+0x4a>
     9de:	7a6b      	ldrb	r3, [r5, #9]
     9e0:	b95b      	cbnz	r3, 9fa <nrf_log_std_entry_process+0x5a>
     9e2:	4927      	ldr	r1, [pc, #156]	; (a80 <nrf_log_std_entry_process+0xe0>)
     9e4:	4620      	mov	r0, r4
     9e6:	f000 f9ad 	bl	d44 <nrf_fprintf>
     9ea:	4620      	mov	r0, r4
     9ec:	f000 f99e 	bl	d2c <nrf_fprintf_buffer_flush>
     9f0:	f884 900c 	strb.w	r9, [r4, #12]
     9f4:	b005      	add	sp, #20
     9f6:	e8bd 83f0 	ldmia.w	sp!, {r4, r5, r6, r7, r8, r9, pc}
     9fa:	4a22      	ldr	r2, [pc, #136]	; (a84 <nrf_log_std_entry_process+0xe4>)
     9fc:	4922      	ldr	r1, [pc, #136]	; (a88 <nrf_log_std_entry_process+0xe8>)
     9fe:	4620      	mov	r0, r4
     a00:	f000 f9a0 	bl	d44 <nrf_fprintf>
     a04:	e7ed      	b.n	9e2 <nrf_log_std_entry_process+0x42>
     a06:	6973      	ldr	r3, [r6, #20]
     a08:	9303      	str	r3, [sp, #12]
     a0a:	6933      	ldr	r3, [r6, #16]
     a0c:	9302      	str	r3, [sp, #8]
     a0e:	68f3      	ldr	r3, [r6, #12]
     a10:	9301      	str	r3, [sp, #4]
     a12:	68b3      	ldr	r3, [r6, #8]
     a14:	9300      	str	r3, [sp, #0]
     a16:	e9d6 2300 	ldrd	r2, r3, [r6]
     a1a:	4641      	mov	r1, r8
     a1c:	4620      	mov	r0, r4
     a1e:	f000 f991 	bl	d44 <nrf_fprintf>
     a22:	e7d9      	b.n	9d8 <nrf_log_std_entry_process+0x38>
     a24:	6832      	ldr	r2, [r6, #0]
     a26:	4641      	mov	r1, r8
     a28:	4620      	mov	r0, r4
     a2a:	f000 f98b 	bl	d44 <nrf_fprintf>
     a2e:	e7d3      	b.n	9d8 <nrf_log_std_entry_process+0x38>
     a30:	e9d6 2300 	ldrd	r2, r3, [r6]
     a34:	4641      	mov	r1, r8
     a36:	4620      	mov	r0, r4
     a38:	f000 f984 	bl	d44 <nrf_fprintf>
     a3c:	e7cc      	b.n	9d8 <nrf_log_std_entry_process+0x38>
     a3e:	68b3      	ldr	r3, [r6, #8]
     a40:	9300      	str	r3, [sp, #0]
     a42:	e9d6 2300 	ldrd	r2, r3, [r6]
     a46:	4641      	mov	r1, r8
     a48:	4620      	mov	r0, r4
     a4a:	f000 f97b 	bl	d44 <nrf_fprintf>
     a4e:	e7c3      	b.n	9d8 <nrf_log_std_entry_process+0x38>
     a50:	68f3      	ldr	r3, [r6, #12]
     a52:	9301      	str	r3, [sp, #4]
     a54:	68b3      	ldr	r3, [r6, #8]
     a56:	9300      	str	r3, [sp, #0]
     a58:	e9d6 2300 	ldrd	r2, r3, [r6]
     a5c:	4641      	mov	r1, r8
     a5e:	4620      	mov	r0, r4
     a60:	f000 f970 	bl	d44 <nrf_fprintf>
     a64:	e7b8      	b.n	9d8 <nrf_log_std_entry_process+0x38>
     a66:	6933      	ldr	r3, [r6, #16]
     a68:	9302      	str	r3, [sp, #8]
     a6a:	68f3      	ldr	r3, [r6, #12]
     a6c:	9301      	str	r3, [sp, #4]
     a6e:	68b3      	ldr	r3, [r6, #8]
     a70:	9300      	str	r3, [sp, #0]
     a72:	e9d6 2300 	ldrd	r2, r3, [r6]
     a76:	4641      	mov	r1, r8
     a78:	4620      	mov	r0, r4
     a7a:	f000 f963 	bl	d44 <nrf_fprintf>
     a7e:	e7ab      	b.n	9d8 <nrf_log_std_entry_process+0x38>
     a80:	00006a30 	.word	0x00006a30
     a84:	00006a18 	.word	0x00006a18
     a88:	00006a20 	.word	0x00006a20

00000a8c <nrf_log_hexdump_entry_process>:
     a8c:	2908      	cmp	r1, #8
     a8e:	d900      	bls.n	a92 <nrf_log_hexdump_entry_process+0x6>
     a90:	4770      	bx	lr
     a92:	e92d 4ff0 	stmdb	sp!, {r4, r5, r6, r7, r8, r9, sl, fp, lr}
     a96:	461d      	mov	r5, r3
     a98:	b083      	sub	sp, #12
     a9a:	2400      	movs	r4, #0
     a9c:	7b1b      	ldrb	r3, [r3, #12]
     a9e:	732c      	strb	r4, [r5, #12]
     aa0:	460e      	mov	r6, r1
     aa2:	4607      	mov	r7, r0
     aa4:	4629      	mov	r1, r5
     aa6:	4610      	mov	r0, r2
     aa8:	4690      	mov	r8, r2
     aaa:	9301      	str	r3, [sp, #4]
     aac:	f8df b0d0 	ldr.w	fp, [pc, #208]	; b80 <nrf_log_hexdump_entry_process+0xf4>
     ab0:	f8df a0d0 	ldr.w	sl, [pc, #208]	; b84 <nrf_log_hexdump_entry_process+0xf8>
     ab4:	f7ff ff32 	bl	91c <prefix_process>
     ab8:	e005      	b.n	ac6 <nrf_log_hexdump_entry_process+0x3a>
     aba:	5d3a      	ldrb	r2, [r7, r4]
     abc:	3401      	adds	r4, #1
     abe:	f000 f941 	bl	d44 <nrf_fprintf>
     ac2:	2c08      	cmp	r4, #8
     ac4:	d009      	beq.n	ada <nrf_log_hexdump_entry_process+0x4e>
     ac6:	42a6      	cmp	r6, r4
     ac8:	4651      	mov	r1, sl
     aca:	4628      	mov	r0, r5
     acc:	d8f5      	bhi.n	aba <nrf_log_hexdump_entry_process+0x2e>
     ace:	4659      	mov	r1, fp
     ad0:	3401      	adds	r4, #1
     ad2:	f000 f937 	bl	d44 <nrf_fprintf>
     ad6:	2c08      	cmp	r4, #8
     ad8:	d1f5      	bne.n	ac6 <nrf_log_hexdump_entry_process+0x3a>
     ada:	4924      	ldr	r1, [pc, #144]	; (b6c <nrf_log_hexdump_entry_process+0xe0>)
     adc:	f8df b0a8 	ldr.w	fp, [pc, #168]	; b88 <nrf_log_hexdump_entry_process+0xfc>
     ae0:	4c23      	ldr	r4, [pc, #140]	; (b70 <nrf_log_hexdump_entry_process+0xe4>)
     ae2:	f8df a0a8 	ldr.w	sl, [pc, #168]	; b8c <nrf_log_hexdump_entry_process+0x100>
     ae6:	4628      	mov	r0, r5
     ae8:	f000 f92c 	bl	d44 <nrf_fprintf>
     aec:	f04f 0900 	mov.w	r9, #0
     af0:	e017      	b.n	b22 <nrf_log_hexdump_entry_process+0x96>
     af2:	f817 1009 	ldrb.w	r1, [r7, r9]
     af6:	1c48      	adds	r0, r1, #1
     af8:	297e      	cmp	r1, #126	; 0x7e
     afa:	f04f 022e 	mov.w	r2, #46	; 0x2e
     afe:	b2c0      	uxtb	r0, r0
     b00:	d806      	bhi.n	b10 <nrf_log_hexdump_entry_process+0x84>
     b02:	f810 200a 	ldrb.w	r2, [r0, sl]
     b06:	f012 0f97 	tst.w	r2, #151	; 0x97
     b0a:	bf14      	ite	ne
     b0c:	460a      	movne	r2, r1
     b0e:	222e      	moveq	r2, #46	; 0x2e
     b10:	4621      	mov	r1, r4
     b12:	4628      	mov	r0, r5
     b14:	f109 0901 	add.w	r9, r9, #1
     b18:	f000 f914 	bl	d44 <nrf_fprintf>
     b1c:	f1b9 0f08 	cmp.w	r9, #8
     b20:	d00a      	beq.n	b38 <nrf_log_hexdump_entry_process+0xac>
     b22:	454e      	cmp	r6, r9
     b24:	d8e5      	bhi.n	af2 <nrf_log_hexdump_entry_process+0x66>
     b26:	4659      	mov	r1, fp
     b28:	4628      	mov	r0, r5
     b2a:	f109 0901 	add.w	r9, r9, #1
     b2e:	f000 f909 	bl	d44 <nrf_fprintf>
     b32:	f1b9 0f08 	cmp.w	r9, #8
     b36:	d1f4      	bne.n	b22 <nrf_log_hexdump_entry_process+0x96>
     b38:	f898 3008 	ldrb.w	r3, [r8, #8]
     b3c:	2b05      	cmp	r3, #5
     b3e:	d002      	beq.n	b46 <nrf_log_hexdump_entry_process+0xba>
     b40:	f898 3009 	ldrb.w	r3, [r8, #9]
     b44:	b95b      	cbnz	r3, b5e <nrf_log_hexdump_entry_process+0xd2>
     b46:	490b      	ldr	r1, [pc, #44]	; (b74 <nrf_log_hexdump_entry_process+0xe8>)
     b48:	4628      	mov	r0, r5
     b4a:	f000 f8fb 	bl	d44 <nrf_fprintf>
     b4e:	4628      	mov	r0, r5
     b50:	f000 f8ec 	bl	d2c <nrf_fprintf_buffer_flush>
     b54:	9b01      	ldr	r3, [sp, #4]
     b56:	732b      	strb	r3, [r5, #12]
     b58:	b003      	add	sp, #12
     b5a:	e8bd 8ff0 	ldmia.w	sp!, {r4, r5, r6, r7, r8, r9, sl, fp, pc}
     b5e:	4a06      	ldr	r2, [pc, #24]	; (b78 <nrf_log_hexdump_entry_process+0xec>)
     b60:	4906      	ldr	r1, [pc, #24]	; (b7c <nrf_log_hexdump_entry_process+0xf0>)
     b62:	4628      	mov	r0, r5
     b64:	f000 f8ee 	bl	d44 <nrf_fprintf>
     b68:	e7ed      	b.n	b46 <nrf_log_hexdump_entry_process+0xba>
     b6a:	bf00      	nop
     b6c:	00006a40 	.word	0x00006a40
     b70:	00006a44 	.word	0x00006a44
     b74:	00006a30 	.word	0x00006a30
     b78:	00006a18 	.word	0x00006a18
     b7c:	00006a20 	.word	0x00006a20
     b80:	00006a3c 	.word	0x00006a3c
     b84:	00006a34 	.word	0x00006a34
     b88:	00006a2c 	.word	0x00006a2c
     b8c:	00006b38 	.word	0x00006b38

00000b90 <app_error_handler_bare>:
     b90:	b500      	push	{lr}
     b92:	b085      	sub	sp, #20
     b94:	4603      	mov	r3, r0
     b96:	2100      	movs	r1, #0
     b98:	aa01      	add	r2, sp, #4
     b9a:	f244 0001 	movw	r0, #16385	; 0x4001
     b9e:	e9cd 1101 	strd	r1, r1, [sp, #4]
     ba2:	9303      	str	r3, [sp, #12]
     ba4:	f000 f804 	bl	bb0 <app_error_fault_handler>
     ba8:	b005      	add	sp, #20
     baa:	f85d fb04 	ldr.w	pc, [sp], #4
     bae:	bf00      	nop

00000bb0 <app_error_fault_handler>:
     bb0:	b510      	push	{r4, lr}
     bb2:	b672      	cpsid	i
     bb4:	f7ff fe9e 	bl	8f4 <nrf_log_panic>
     bb8:	f7ff fd18 	bl	5ec <nrf_log_frontend_dequeue>
     bbc:	2800      	cmp	r0, #0
     bbe:	d1fb      	bne.n	bb8 <app_error_fault_handler+0x8>
     bc0:	4b10      	ldr	r3, [pc, #64]	; (c04 <app_error_fault_handler+0x54>)
     bc2:	4c11      	ldr	r4, [pc, #68]	; (c08 <app_error_fault_handler+0x58>)
     bc4:	4911      	ldr	r1, [pc, #68]	; (c0c <app_error_fault_handler+0x5c>)
     bc6:	1ae4      	subs	r4, r4, r3
     bc8:	08e4      	lsrs	r4, r4, #3
     bca:	0424      	lsls	r4, r4, #16
     bcc:	f044 0001 	orr.w	r0, r4, #1
     bd0:	f7ff fe38 	bl	844 <nrf_log_frontend_std_0>
     bd4:	4b0e      	ldr	r3, [pc, #56]	; (c10 <app_error_fault_handler+0x60>)
     bd6:	f8d3 30f0 	ldr.w	r3, [r3, #240]	; 0xf0
     bda:	07db      	lsls	r3, r3, #31
     bdc:	d500      	bpl.n	be0 <app_error_fault_handler+0x30>
     bde:	be00      	bkpt	0x0000
     be0:	490c      	ldr	r1, [pc, #48]	; (c14 <app_error_fault_handler+0x64>)
     be2:	f044 0002 	orr.w	r0, r4, #2
     be6:	f7ff fe2d 	bl	844 <nrf_log_frontend_std_0>
     bea:	f3bf 8f4f 	dsb	sy
     bee:	4908      	ldr	r1, [pc, #32]	; (c10 <app_error_fault_handler+0x60>)
     bf0:	4b09      	ldr	r3, [pc, #36]	; (c18 <app_error_fault_handler+0x68>)
     bf2:	68ca      	ldr	r2, [r1, #12]
     bf4:	f402 62e0 	and.w	r2, r2, #1792	; 0x700
     bf8:	4313      	orrs	r3, r2
     bfa:	60cb      	str	r3, [r1, #12]
     bfc:	f3bf 8f4f 	dsb	sy
     c00:	bf00      	nop
     c02:	e7fd      	b.n	c00 <app_error_fault_handler+0x50>
     c04:	00006f18 	.word	0x00006f18
     c08:	00006f48 	.word	0x00006f48
     c0c:	00006ad8 	.word	0x00006ad8
     c10:	e000ed00 	.word	0xe000ed00
     c14:	00006ae4 	.word	0x00006ae4
     c18:	05fa0004 	.word	0x05fa0004

00000c1c <app_util_critical_region_enter>:
     c1c:	b672      	cpsid	i
     c1e:	4a02      	ldr	r2, [pc, #8]	; (c28 <app_util_critical_region_enter+0xc>)
     c20:	6813      	ldr	r3, [r2, #0]
     c22:	3301      	adds	r3, #1
     c24:	6013      	str	r3, [r2, #0]
     c26:	4770      	bx	lr
     c28:	2000074c 	.word	0x2000074c

00000c2c <app_util_critical_region_exit>:
     c2c:	4a03      	ldr	r2, [pc, #12]	; (c3c <app_util_critical_region_exit+0x10>)
     c2e:	6813      	ldr	r3, [r2, #0]
     c30:	3b01      	subs	r3, #1
     c32:	6013      	str	r3, [r2, #0]
     c34:	b903      	cbnz	r3, c38 <app_util_critical_region_exit+0xc>
     c36:	b662      	cpsie	i
     c38:	4770      	bx	lr
     c3a:	bf00      	nop
     c3c:	2000074c 	.word	0x2000074c

00000c40 <nrf_atomic_u32_fetch_store>:
     c40:	4603      	mov	r3, r0
     c42:	e853 0f00 	ldrex	r0, [r3]
     c46:	460a      	mov	r2, r1
     c48:	e843 2c00 	strex	ip, r2, [r3]
     c4c:	f09c 0f00 	teq	ip, #0
     c50:	d1f7      	bne.n	c42 <nrf_atomic_u32_fetch_store+0x2>
     c52:	4770      	bx	lr

00000c54 <nrf_atomic_u32_add>:
     c54:	4603      	mov	r3, r0
     c56:	e853 2f00 	ldrex	r2, [r3]
     c5a:	eb02 0001 	add.w	r0, r2, r1
     c5e:	e843 0c00 	strex	ip, r0, [r3]
     c62:	f09c 0f00 	teq	ip, #0
     c66:	d1f6      	bne.n	c56 <nrf_atomic_u32_add+0x2>
     c68:	4770      	bx	lr
     c6a:	bf00      	nop

00000c6c <nrf_atomic_u32_sub>:
     c6c:	4603      	mov	r3, r0
     c6e:	e853 2f00 	ldrex	r2, [r3]
     c72:	eba2 0001 	sub.w	r0, r2, r1
     c76:	e843 0c00 	strex	ip, r0, [r3]
     c7a:	f09c 0f00 	teq	ip, #0
     c7e:	d1f6      	bne.n	c6e <nrf_atomic_u32_sub+0x2>
     c80:	4770      	bx	lr
     c82:	bf00      	nop

00000c84 <nrf_atomic_flag_set>:
     c84:	4603      	mov	r3, r0
     c86:	2201      	movs	r2, #1
     c88:	e853 1f00 	ldrex	r1, [r3]
     c8c:	ea41 0002 	orr.w	r0, r1, r2
     c90:	e843 0c00 	strex	ip, r0, [r3]
     c94:	f09c 0f00 	teq	ip, #0
     c98:	d1f6      	bne.n	c88 <nrf_atomic_flag_set+0x4>
     c9a:	4770      	bx	lr

00000c9c <nrf_atomic_flag_clear_fetch>:
     c9c:	4603      	mov	r3, r0
     c9e:	2200      	movs	r2, #0
     ca0:	e853 0f00 	ldrex	r0, [r3]
     ca4:	ea00 0102 	and.w	r1, r0, r2
     ca8:	e843 1c00 	strex	ip, r1, [r3]
     cac:	f09c 0f00 	teq	ip, #0
     cb0:	d1f6      	bne.n	ca0 <nrf_atomic_flag_clear_fetch+0x4>
     cb2:	4770      	bx	lr

00000cb4 <nrf_balloc_alloc>:
     cb4:	b538      	push	{r3, r4, r5, lr}
     cb6:	4604      	mov	r4, r0
     cb8:	2000      	movs	r0, #0
     cba:	f7ff ffaf 	bl	c1c <app_util_critical_region_enter>
     cbe:	e9d4 3100 	ldrd	r3, r1, [r4]
     cc2:	681a      	ldr	r2, [r3, #0]
     cc4:	428a      	cmp	r2, r1
     cc6:	d915      	bls.n	cf4 <nrf_balloc_alloc+0x40>
     cc8:	1e51      	subs	r1, r2, #1
     cca:	6019      	str	r1, [r3, #0]
     ccc:	6821      	ldr	r1, [r4, #0]
     cce:	68a3      	ldr	r3, [r4, #8]
     cd0:	f812 2c01 	ldrb.w	r2, [r2, #-1]
     cd4:	8a20      	ldrh	r0, [r4, #16]
     cd6:	680d      	ldr	r5, [r1, #0]
     cd8:	68e4      	ldr	r4, [r4, #12]
     cda:	1b5b      	subs	r3, r3, r5
     cdc:	fb00 4402 	mla	r4, r0, r2, r4
     ce0:	790a      	ldrb	r2, [r1, #4]
     ce2:	b2db      	uxtb	r3, r3
     ce4:	429a      	cmp	r2, r3
     ce6:	d200      	bcs.n	cea <nrf_balloc_alloc+0x36>
     ce8:	710b      	strb	r3, [r1, #4]
     cea:	2000      	movs	r0, #0
     cec:	f7ff ff9e 	bl	c2c <app_util_critical_region_exit>
     cf0:	4620      	mov	r0, r4
     cf2:	bd38      	pop	{r3, r4, r5, pc}
     cf4:	2400      	movs	r4, #0
     cf6:	2000      	movs	r0, #0
     cf8:	f7ff ff98 	bl	c2c <app_util_critical_region_exit>
     cfc:	4620      	mov	r0, r4
     cfe:	bd38      	pop	{r3, r4, r5, pc}

00000d00 <nrf_balloc_free>:
     d00:	b538      	push	{r3, r4, r5, lr}
     d02:	4605      	mov	r5, r0
     d04:	2000      	movs	r0, #0
     d06:	460c      	mov	r4, r1
     d08:	f7ff ff88 	bl	c1c <app_util_critical_region_enter>
     d0c:	682a      	ldr	r2, [r5, #0]
     d0e:	6813      	ldr	r3, [r2, #0]
     d10:	1c59      	adds	r1, r3, #1
     d12:	6011      	str	r1, [r2, #0]
     d14:	68e9      	ldr	r1, [r5, #12]
     d16:	8a2a      	ldrh	r2, [r5, #16]
     d18:	1a64      	subs	r4, r4, r1
     d1a:	fbb4 f4f2 	udiv	r4, r4, r2
     d1e:	701c      	strb	r4, [r3, #0]
     d20:	e8bd 4038 	ldmia.w	sp!, {r3, r4, r5, lr}
     d24:	2000      	movs	r0, #0
     d26:	f7ff bf81 	b.w	c2c <app_util_critical_region_exit>
     d2a:	bf00      	nop

00000d2c <nrf_fprintf_buffer_flush>:
     d2c:	6882      	ldr	r2, [r0, #8]
     d2e:	b142      	cbz	r2, d42 <nrf_fprintf_buffer_flush+0x16>
     d30:	b510      	push	{r4, lr}
     d32:	4604      	mov	r4, r0
     d34:	6943      	ldr	r3, [r0, #20]
     d36:	6801      	ldr	r1, [r0, #0]
     d38:	6900      	ldr	r0, [r0, #16]
     d3a:	4798      	blx	r3
     d3c:	2300      	movs	r3, #0
     d3e:	60a3      	str	r3, [r4, #8]
     d40:	bd10      	pop	{r4, pc}
     d42:	4770      	bx	lr

00000d44 <nrf_fprintf>:
     d44:	b40e      	push	{r1, r2, r3}
     d46:	b500      	push	{lr}
     d48:	b082      	sub	sp, #8
     d4a:	9903      	ldr	r1, [sp, #12]
     d4c:	b121      	cbz	r1, d58 <nrf_fprintf+0x14>
     d4e:	ab04      	add	r3, sp, #16
     d50:	aa01      	add	r2, sp, #4
     d52:	9301      	str	r3, [sp, #4]
     d54:	f000 f8b6 	bl	ec4 <nrf_fprintf_fmt>
     d58:	b002      	add	sp, #8
     d5a:	f85d eb04 	ldr.w	lr, [sp], #4
     d5e:	b003      	add	sp, #12
     d60:	4770      	bx	lr
     d62:	bf00      	nop

00000d64 <unsigned_print>:
     d64:	e92d 4ff0 	stmdb	sp!, {r4, r5, r6, r7, r8, r9, sl, fp, lr}
     d68:	4615      	mov	r5, r2
     d6a:	b083      	sub	sp, #12
     d6c:	42a9      	cmp	r1, r5
     d6e:	f8dd 9030 	ldr.w	r9, [sp, #48]	; 0x30
     d72:	9a0d      	ldr	r2, [sp, #52]	; 0x34
     d74:	460f      	mov	r7, r1
     d76:	4606      	mov	r6, r0
     d78:	469a      	mov	sl, r3
     d7a:	f0c0 809e 	bcc.w	eba <unsigned_print+0x156>
     d7e:	460b      	mov	r3, r1
     d80:	f04f 0801 	mov.w	r8, #1
     d84:	fbb3 f3f5 	udiv	r3, r3, r5
     d88:	429d      	cmp	r5, r3
     d8a:	f108 0801 	add.w	r8, r8, #1
     d8e:	d9f9      	bls.n	d84 <unsigned_print+0x20>
     d90:	45d0      	cmp	r8, sl
     d92:	bf38      	it	cc
     d94:	46d0      	movcc	r8, sl
     d96:	f012 0301 	ands.w	r3, r2, #1
     d9a:	9301      	str	r3, [sp, #4]
     d9c:	d102      	bne.n	da4 <unsigned_print+0x40>
     d9e:	f1b9 0f00 	cmp.w	r9, #0
     da2:	d167      	bne.n	e74 <unsigned_print+0x110>
     da4:	68b2      	ldr	r2, [r6, #8]
     da6:	f1ba 0f01 	cmp.w	sl, #1
     daa:	f04f 0401 	mov.w	r4, #1
     dae:	d906      	bls.n	dbe <unsigned_print+0x5a>
     db0:	f10a 3aff 	add.w	sl, sl, #4294967295	; 0xffffffff
     db4:	f1ba 0f01 	cmp.w	sl, #1
     db8:	fb05 f404 	mul.w	r4, r5, r4
     dbc:	d8f8      	bhi.n	db0 <unsigned_print+0x4c>
     dbe:	fbb7 f3f4 	udiv	r3, r7, r4
     dc2:	429d      	cmp	r5, r3
     dc4:	d805      	bhi.n	dd2 <unsigned_print+0x6e>
     dc6:	fb05 f404 	mul.w	r4, r5, r4
     dca:	fbb7 f3f4 	udiv	r3, r7, r4
     dce:	429d      	cmp	r5, r3
     dd0:	d9f9      	bls.n	dc6 <unsigned_print+0x62>
     dd2:	f8df a0ec 	ldr.w	sl, [pc, #236]	; ec0 <unsigned_print+0x15c>
     dd6:	e007      	b.n	de8 <unsigned_print+0x84>
     dd8:	42ac      	cmp	r4, r5
     dda:	fbb4 f3f5 	udiv	r3, r4, r5
     dde:	d31a      	bcc.n	e16 <unsigned_print+0xb2>
     de0:	68b2      	ldr	r2, [r6, #8]
     de2:	461c      	mov	r4, r3
     de4:	fbb7 f3f3 	udiv	r3, r7, r3
     de8:	f81a b003 	ldrb.w	fp, [sl, r3]
     dec:	f1bb 0f0a 	cmp.w	fp, #10
     df0:	fb04 7713 	mls	r7, r4, r3, r7
     df4:	d028      	beq.n	e48 <unsigned_print+0xe4>
     df6:	6833      	ldr	r3, [r6, #0]
     df8:	1c51      	adds	r1, r2, #1
     dfa:	60b1      	str	r1, [r6, #8]
     dfc:	f803 b002 	strb.w	fp, [r3, r2]
     e00:	e9d6 3201 	ldrd	r3, r2, [r6, #4]
     e04:	429a      	cmp	r2, r3
     e06:	d3e7      	bcc.n	dd8 <unsigned_print+0x74>
     e08:	4630      	mov	r0, r6
     e0a:	f7ff ff8f 	bl	d2c <nrf_fprintf_buffer_flush>
     e0e:	fbb4 f3f5 	udiv	r3, r4, r5
     e12:	42ac      	cmp	r4, r5
     e14:	d2e4      	bcs.n	de0 <unsigned_print+0x7c>
     e16:	9b01      	ldr	r3, [sp, #4]
     e18:	b19b      	cbz	r3, e42 <unsigned_print+0xde>
     e1a:	f1b9 0f00 	cmp.w	r9, #0
     e1e:	d010      	beq.n	e42 <unsigned_print+0xde>
     e20:	2420      	movs	r4, #32
     e22:	45c8      	cmp	r8, r9
     e24:	f109 39ff 	add.w	r9, r9, #4294967295	; 0xffffffff
     e28:	d20b      	bcs.n	e42 <unsigned_print+0xde>
     e2a:	68b3      	ldr	r3, [r6, #8]
     e2c:	6832      	ldr	r2, [r6, #0]
     e2e:	1c59      	adds	r1, r3, #1
     e30:	60b1      	str	r1, [r6, #8]
     e32:	54d4      	strb	r4, [r2, r3]
     e34:	e9d6 3201 	ldrd	r3, r2, [r6, #4]
     e38:	429a      	cmp	r2, r3
     e3a:	d214      	bcs.n	e66 <unsigned_print+0x102>
     e3c:	f1b9 0f00 	cmp.w	r9, #0
     e40:	d1ef      	bne.n	e22 <unsigned_print+0xbe>
     e42:	b003      	add	sp, #12
     e44:	e8bd 8ff0 	ldmia.w	sp!, {r4, r5, r6, r7, r8, r9, sl, fp, pc}
     e48:	1c51      	adds	r1, r2, #1
     e4a:	6833      	ldr	r3, [r6, #0]
     e4c:	60b1      	str	r1, [r6, #8]
     e4e:	f04f 010d 	mov.w	r1, #13
     e52:	5499      	strb	r1, [r3, r2]
     e54:	e9d6 3201 	ldrd	r3, r2, [r6, #4]
     e58:	429a      	cmp	r2, r3
     e5a:	d3cc      	bcc.n	df6 <unsigned_print+0x92>
     e5c:	4630      	mov	r0, r6
     e5e:	f7ff ff65 	bl	d2c <nrf_fprintf_buffer_flush>
     e62:	68b2      	ldr	r2, [r6, #8]
     e64:	e7c7      	b.n	df6 <unsigned_print+0x92>
     e66:	4630      	mov	r0, r6
     e68:	f7ff ff60 	bl	d2c <nrf_fprintf_buffer_flush>
     e6c:	f1b9 0f00 	cmp.w	r9, #0
     e70:	d1d7      	bne.n	e22 <unsigned_print+0xbe>
     e72:	e7e6      	b.n	e42 <unsigned_print+0xde>
     e74:	0793      	lsls	r3, r2, #30
     e76:	d41a      	bmi.n	eae <unsigned_print+0x14a>
     e78:	2420      	movs	r4, #32
     e7a:	68b2      	ldr	r2, [r6, #8]
     e7c:	45c8      	cmp	r8, r9
     e7e:	f102 0101 	add.w	r1, r2, #1
     e82:	d290      	bcs.n	da6 <unsigned_print+0x42>
     e84:	6833      	ldr	r3, [r6, #0]
     e86:	60b1      	str	r1, [r6, #8]
     e88:	549c      	strb	r4, [r3, r2]
     e8a:	e9d6 3201 	ldrd	r3, r2, [r6, #4]
     e8e:	429a      	cmp	r2, r3
     e90:	f109 39ff 	add.w	r9, r9, #4294967295	; 0xffffffff
     e94:	d203      	bcs.n	e9e <unsigned_print+0x13a>
     e96:	f1b9 0f00 	cmp.w	r9, #0
     e9a:	d1ef      	bne.n	e7c <unsigned_print+0x118>
     e9c:	e783      	b.n	da6 <unsigned_print+0x42>
     e9e:	4630      	mov	r0, r6
     ea0:	f7ff ff44 	bl	d2c <nrf_fprintf_buffer_flush>
     ea4:	68b2      	ldr	r2, [r6, #8]
     ea6:	f1b9 0f00 	cmp.w	r9, #0
     eaa:	d1e7      	bne.n	e7c <unsigned_print+0x118>
     eac:	e77b      	b.n	da6 <unsigned_print+0x42>
     eae:	f1ba 0f00 	cmp.w	sl, #0
     eb2:	bf0c      	ite	eq
     eb4:	2430      	moveq	r4, #48	; 0x30
     eb6:	2420      	movne	r4, #32
     eb8:	e7df      	b.n	e7a <unsigned_print+0x116>
     eba:	f04f 0801 	mov.w	r8, #1
     ebe:	e767      	b.n	d90 <unsigned_print+0x2c>
     ec0:	00006af4 	.word	0x00006af4

00000ec4 <nrf_fprintf_fmt>:
     ec4:	2900      	cmp	r1, #0
     ec6:	f000 825c 	beq.w	1382 <nrf_fprintf_fmt+0x4be>
     eca:	e92d 4ff0 	stmdb	sp!, {r4, r5, r6, r7, r8, r9, sl, fp, lr}
     ece:	f8df 9570 	ldr.w	r9, [pc, #1392]	; 1440 <nrf_fprintf_fmt+0x57c>
     ed2:	780d      	ldrb	r5, [r1, #0]
     ed4:	b085      	sub	sp, #20
     ed6:	4606      	mov	r6, r0
     ed8:	4690      	mov	r8, r2
     eda:	460c      	mov	r4, r1
     edc:	f04f 0a0d 	mov.w	sl, #13
     ee0:	e00f      	b.n	f02 <nrf_fprintf_fmt+0x3e>
     ee2:	2d0a      	cmp	r5, #10
     ee4:	68b3      	ldr	r3, [r6, #8]
     ee6:	f000 808e 	beq.w	1006 <nrf_fprintf_fmt+0x142>
     eea:	6832      	ldr	r2, [r6, #0]
     eec:	1c59      	adds	r1, r3, #1
     eee:	60b1      	str	r1, [r6, #8]
     ef0:	54d5      	strb	r5, [r2, r3]
     ef2:	e9d6 3201 	ldrd	r3, r2, [r6, #4]
     ef6:	429a      	cmp	r2, r3
     ef8:	f080 8081 	bcs.w	ffe <nrf_fprintf_fmt+0x13a>
     efc:	7825      	ldrb	r5, [r4, #0]
     efe:	2d00      	cmp	r5, #0
     f00:	d069      	beq.n	fd6 <nrf_fprintf_fmt+0x112>
     f02:	3401      	adds	r4, #1
     f04:	2d00      	cmp	r5, #0
     f06:	d066      	beq.n	fd6 <nrf_fprintf_fmt+0x112>
     f08:	2d25      	cmp	r5, #37	; 0x25
     f0a:	d1ea      	bne.n	ee2 <nrf_fprintf_fmt+0x1e>
     f0c:	2700      	movs	r7, #0
     f0e:	4623      	mov	r3, r4
     f10:	f814 2b01 	ldrb.w	r2, [r4], #1
     f14:	2a2d      	cmp	r2, #45	; 0x2d
     f16:	d06c      	beq.n	ff2 <nrf_fprintf_fmt+0x12e>
     f18:	2a30      	cmp	r2, #48	; 0x30
     f1a:	d06d      	beq.n	ff8 <nrf_fprintf_fmt+0x134>
     f1c:	2a2b      	cmp	r2, #43	; 0x2b
     f1e:	d061      	beq.n	fe4 <nrf_fprintf_fmt+0x120>
     f20:	2a2a      	cmp	r2, #42	; 0x2a
     f22:	d07f      	beq.n	1024 <nrf_fprintf_fmt+0x160>
     f24:	f1a2 0130 	sub.w	r1, r2, #48	; 0x30
     f28:	2909      	cmp	r1, #9
     f2a:	f04f 0500 	mov.w	r5, #0
     f2e:	d80b      	bhi.n	f48 <nrf_fprintf_fmt+0x84>
     f30:	eb05 0585 	add.w	r5, r5, r5, lsl #2
     f34:	eb02 0545 	add.w	r5, r2, r5, lsl #1
     f38:	f813 2f01 	ldrb.w	r2, [r3, #1]!
     f3c:	f1a2 0130 	sub.w	r1, r2, #48	; 0x30
     f40:	2909      	cmp	r1, #9
     f42:	f1a5 0530 	sub.w	r5, r5, #48	; 0x30
     f46:	d9f3      	bls.n	f30 <nrf_fprintf_fmt+0x6c>
     f48:	2a2e      	cmp	r2, #46	; 0x2e
     f4a:	461c      	mov	r4, r3
     f4c:	d075      	beq.n	103a <nrf_fprintf_fmt+0x176>
     f4e:	2300      	movs	r3, #0
     f50:	e001      	b.n	f56 <nrf_fprintf_fmt+0x92>
     f52:	f814 2f01 	ldrb.w	r2, [r4, #1]!
     f56:	f002 01fb 	and.w	r1, r2, #251	; 0xfb
     f5a:	2968      	cmp	r1, #104	; 0x68
     f5c:	d0f9      	beq.n	f52 <nrf_fprintf_fmt+0x8e>
     f5e:	2a25      	cmp	r2, #37	; 0x25
     f60:	f000 8186 	beq.w	1270 <nrf_fprintf_fmt+0x3ac>
     f64:	3a58      	subs	r2, #88	; 0x58
     f66:	b2d1      	uxtb	r1, r2
     f68:	2920      	cmp	r1, #32
     f6a:	d830      	bhi.n	fce <nrf_fprintf_fmt+0x10a>
     f6c:	2a20      	cmp	r2, #32
     f6e:	d82e      	bhi.n	fce <nrf_fprintf_fmt+0x10a>
     f70:	e8df f012 	tbh	[pc, r2, lsl #1]
     f74:	002d0021 	.word	0x002d0021
     f78:	002d002d 	.word	0x002d002d
     f7c:	002d002d 	.word	0x002d002d
     f80:	002d002d 	.word	0x002d002d
     f84:	002d002d 	.word	0x002d002d
     f88:	00fe002d 	.word	0x00fe002d
     f8c:	002d0079 	.word	0x002d0079
     f90:	002d002d 	.word	0x002d002d
     f94:	0079002d 	.word	0x0079002d
     f98:	002d002d 	.word	0x002d002d
     f9c:	002d002d 	.word	0x002d002d
     fa0:	002d002d 	.word	0x002d002d
     fa4:	002d00bd 	.word	0x002d00bd
     fa8:	011a002d 	.word	0x011a002d
     fac:	0116002d 	.word	0x0116002d
     fb0:	002d002d 	.word	0x002d002d
     fb4:	0021      	.short	0x0021
     fb6:	f8d8 1000 	ldr.w	r1, [r8]
     fba:	2210      	movs	r2, #16
     fbc:	1d08      	adds	r0, r1, #4
     fbe:	f8c8 0000 	str.w	r0, [r8]
     fc2:	6809      	ldr	r1, [r1, #0]
     fc4:	4630      	mov	r0, r6
     fc6:	e9cd 5700 	strd	r5, r7, [sp]
     fca:	f7ff fecb 	bl	d64 <unsigned_print>
     fce:	3401      	adds	r4, #1
     fd0:	7825      	ldrb	r5, [r4, #0]
     fd2:	2d00      	cmp	r5, #0
     fd4:	d195      	bne.n	f02 <nrf_fprintf_fmt+0x3e>
     fd6:	7b33      	ldrb	r3, [r6, #12]
     fd8:	2b00      	cmp	r3, #0
     fda:	f040 8143 	bne.w	1264 <nrf_fprintf_fmt+0x3a0>
     fde:	b005      	add	sp, #20
     fe0:	e8bd 8ff0 	ldmia.w	sp!, {r4, r5, r6, r7, r8, r9, sl, fp, pc}
     fe4:	4623      	mov	r3, r4
     fe6:	f814 2b01 	ldrb.w	r2, [r4], #1
     fea:	2a2d      	cmp	r2, #45	; 0x2d
     fec:	f047 0704 	orr.w	r7, r7, #4
     ff0:	d192      	bne.n	f18 <nrf_fprintf_fmt+0x54>
     ff2:	f047 0701 	orr.w	r7, r7, #1
     ff6:	e78a      	b.n	f0e <nrf_fprintf_fmt+0x4a>
     ff8:	f047 0702 	orr.w	r7, r7, #2
     ffc:	e787      	b.n	f0e <nrf_fprintf_fmt+0x4a>
     ffe:	4630      	mov	r0, r6
    1000:	f7ff fe94 	bl	d2c <nrf_fprintf_buffer_flush>
    1004:	e77a      	b.n	efc <nrf_fprintf_fmt+0x38>
    1006:	6832      	ldr	r2, [r6, #0]
    1008:	1c59      	adds	r1, r3, #1
    100a:	60b1      	str	r1, [r6, #8]
    100c:	f802 a003 	strb.w	sl, [r2, r3]
    1010:	e9d6 2301 	ldrd	r2, r3, [r6, #4]
    1014:	4293      	cmp	r3, r2
    1016:	f4ff af68 	bcc.w	eea <nrf_fprintf_fmt+0x26>
    101a:	4630      	mov	r0, r6
    101c:	f7ff fe86 	bl	d2c <nrf_fprintf_buffer_flush>
    1020:	68b3      	ldr	r3, [r6, #8]
    1022:	e762      	b.n	eea <nrf_fprintf_fmt+0x26>
    1024:	f8d8 2000 	ldr.w	r2, [r8]
    1028:	1d11      	adds	r1, r2, #4
    102a:	f8c8 1000 	str.w	r1, [r8]
    102e:	6815      	ldr	r5, [r2, #0]
    1030:	785a      	ldrb	r2, [r3, #1]
    1032:	2a2e      	cmp	r2, #46	; 0x2e
    1034:	f103 0401 	add.w	r4, r3, #1
    1038:	d189      	bne.n	f4e <nrf_fprintf_fmt+0x8a>
    103a:	7862      	ldrb	r2, [r4, #1]
    103c:	f1a2 0330 	sub.w	r3, r2, #48	; 0x30
    1040:	2b09      	cmp	r3, #9
    1042:	f104 0401 	add.w	r4, r4, #1
    1046:	f04f 0300 	mov.w	r3, #0
    104a:	d884      	bhi.n	f56 <nrf_fprintf_fmt+0x92>
    104c:	eb03 0383 	add.w	r3, r3, r3, lsl #2
    1050:	eb02 0343 	add.w	r3, r2, r3, lsl #1
    1054:	f814 2f01 	ldrb.w	r2, [r4, #1]!
    1058:	f1a2 0130 	sub.w	r1, r2, #48	; 0x30
    105c:	2909      	cmp	r1, #9
    105e:	f1a3 0330 	sub.w	r3, r3, #48	; 0x30
    1062:	d9f3      	bls.n	104c <nrf_fprintf_fmt+0x188>
    1064:	e777      	b.n	f56 <nrf_fprintf_fmt+0x92>
    1066:	f8d8 2000 	ldr.w	r2, [r8]
    106a:	1d11      	adds	r1, r2, #4
    106c:	f8c8 1000 	str.w	r1, [r8]
    1070:	f8d2 b000 	ldr.w	fp, [r2]
    1074:	ea8b 72eb 	eor.w	r2, fp, fp, asr #31
    1078:	eba2 72eb 	sub.w	r2, r2, fp, asr #31
    107c:	2a09      	cmp	r2, #9
    107e:	f340 81db 	ble.w	1438 <nrf_fprintf_fmt+0x574>
    1082:	f8df c3c0 	ldr.w	ip, [pc, #960]	; 1444 <nrf_fprintf_fmt+0x580>
    1086:	2001      	movs	r0, #1
    1088:	4611      	mov	r1, r2
    108a:	2963      	cmp	r1, #99	; 0x63
    108c:	fbac e202 	umull	lr, r2, ip, r2
    1090:	f100 0001 	add.w	r0, r0, #1
    1094:	ea4f 02d2 	mov.w	r2, r2, lsr #3
    1098:	dcf6      	bgt.n	1088 <nrf_fprintf_fmt+0x1c4>
    109a:	4298      	cmp	r0, r3
    109c:	4602      	mov	r2, r0
    109e:	bf38      	it	cc
    10a0:	461a      	movcc	r2, r3
    10a2:	9202      	str	r2, [sp, #8]
    10a4:	2d00      	cmp	r5, #0
    10a6:	f000 811e 	beq.w	12e6 <nrf_fprintf_fmt+0x422>
    10aa:	f1bb 0f00 	cmp.w	fp, #0
    10ae:	f2c0 812e 	blt.w	130e <nrf_fprintf_fmt+0x44a>
    10b2:	077a      	lsls	r2, r7, #29
    10b4:	f100 812b 	bmi.w	130e <nrf_fprintf_fmt+0x44a>
    10b8:	07b8      	lsls	r0, r7, #30
    10ba:	f140 812a 	bpl.w	1312 <nrf_fprintf_fmt+0x44e>
    10be:	2b00      	cmp	r3, #0
    10c0:	f040 8127 	bne.w	1312 <nrf_fprintf_fmt+0x44e>
    10c4:	f1bb 0f00 	cmp.w	fp, #0
    10c8:	f2c0 817d 	blt.w	13c6 <nrf_fprintf_fmt+0x502>
    10cc:	077a      	lsls	r2, r7, #29
    10ce:	f100 818d 	bmi.w	13ec <nrf_fprintf_fmt+0x528>
    10d2:	f007 0203 	and.w	r2, r7, #3
    10d6:	2a02      	cmp	r2, #2
    10d8:	f000 815d 	beq.w	1396 <nrf_fprintf_fmt+0x4d2>
    10dc:	e9cd 5700 	strd	r5, r7, [sp]
    10e0:	4659      	mov	r1, fp
    10e2:	220a      	movs	r2, #10
    10e4:	4630      	mov	r0, r6
    10e6:	f7ff fe3d 	bl	d64 <unsigned_print>
    10ea:	3401      	adds	r4, #1
    10ec:	e770      	b.n	fd0 <nrf_fprintf_fmt+0x10c>
    10ee:	f8d8 3000 	ldr.w	r3, [r8]
    10f2:	1d1a      	adds	r2, r3, #4
    10f4:	f8c8 2000 	str.w	r2, [r8]
    10f8:	681f      	ldr	r7, [r3, #0]
    10fa:	68b3      	ldr	r3, [r6, #8]
    10fc:	6832      	ldr	r2, [r6, #0]
    10fe:	1c58      	adds	r0, r3, #1
    1100:	2130      	movs	r1, #48	; 0x30
    1102:	60b0      	str	r0, [r6, #8]
    1104:	54d1      	strb	r1, [r2, r3]
    1106:	e9d6 2301 	ldrd	r2, r3, [r6, #4]
    110a:	4293      	cmp	r3, r2
    110c:	f080 80fa 	bcs.w	1304 <nrf_fprintf_fmt+0x440>
    1110:	1c59      	adds	r1, r3, #1
    1112:	6832      	ldr	r2, [r6, #0]
    1114:	60b1      	str	r1, [r6, #8]
    1116:	2178      	movs	r1, #120	; 0x78
    1118:	54d1      	strb	r1, [r2, r3]
    111a:	e9d6 3201 	ldrd	r3, r2, [r6, #4]
    111e:	429a      	cmp	r2, r3
    1120:	f080 80eb 	bcs.w	12fa <nrf_fprintf_fmt+0x436>
    1124:	2f0f      	cmp	r7, #15
    1126:	d903      	bls.n	1130 <nrf_fprintf_fmt+0x26c>
    1128:	463b      	mov	r3, r7
    112a:	091b      	lsrs	r3, r3, #4
    112c:	2b0f      	cmp	r3, #15
    112e:	d8fc      	bhi.n	112a <nrf_fprintf_fmt+0x266>
    1130:	f04f 5580 	mov.w	r5, #268435456	; 0x10000000
    1134:	e006      	b.n	1144 <nrf_fprintf_fmt+0x280>
    1136:	2d0f      	cmp	r5, #15
    1138:	ea4f 1315 	mov.w	r3, r5, lsr #4
    113c:	f67f af47 	bls.w	fce <nrf_fprintf_fmt+0x10a>
    1140:	68b2      	ldr	r2, [r6, #8]
    1142:	461d      	mov	r5, r3
    1144:	fbb7 f3f5 	udiv	r3, r7, r5
    1148:	f819 b003 	ldrb.w	fp, [r9, r3]
    114c:	f1bb 0f0a 	cmp.w	fp, #10
    1150:	fb05 7713 	mls	r7, r5, r3, r7
    1154:	d077      	beq.n	1246 <nrf_fprintf_fmt+0x382>
    1156:	6833      	ldr	r3, [r6, #0]
    1158:	1c51      	adds	r1, r2, #1
    115a:	60b1      	str	r1, [r6, #8]
    115c:	f803 b002 	strb.w	fp, [r3, r2]
    1160:	e9d6 3201 	ldrd	r3, r2, [r6, #4]
    1164:	429a      	cmp	r2, r3
    1166:	d3e6      	bcc.n	1136 <nrf_fprintf_fmt+0x272>
    1168:	4630      	mov	r0, r6
    116a:	f7ff fddf 	bl	d2c <nrf_fprintf_buffer_flush>
    116e:	e7e2      	b.n	1136 <nrf_fprintf_fmt+0x272>
    1170:	f8d8 3000 	ldr.w	r3, [r8]
    1174:	1d1a      	adds	r2, r3, #4
    1176:	f8c8 2000 	str.w	r2, [r8]
    117a:	781d      	ldrb	r5, [r3, #0]
    117c:	68b3      	ldr	r3, [r6, #8]
    117e:	2d0a      	cmp	r5, #10
    1180:	f000 813a 	beq.w	13f8 <nrf_fprintf_fmt+0x534>
    1184:	6832      	ldr	r2, [r6, #0]
    1186:	1c59      	adds	r1, r3, #1
    1188:	60b1      	str	r1, [r6, #8]
    118a:	54d5      	strb	r5, [r2, r3]
    118c:	e9d6 3201 	ldrd	r3, r2, [r6, #4]
    1190:	429a      	cmp	r2, r3
    1192:	f4ff af1c 	bcc.w	fce <nrf_fprintf_fmt+0x10a>
    1196:	4630      	mov	r0, r6
    1198:	f7ff fdc8 	bl	d2c <nrf_fprintf_buffer_flush>
    119c:	3401      	adds	r4, #1
    119e:	e717      	b.n	fd0 <nrf_fprintf_fmt+0x10c>
    11a0:	f8d8 1000 	ldr.w	r1, [r8]
    11a4:	220a      	movs	r2, #10
    11a6:	e709      	b.n	fbc <nrf_fprintf_fmt+0xf8>
    11a8:	f8d8 3000 	ldr.w	r3, [r8]
    11ac:	1d1a      	adds	r2, r3, #4
    11ae:	f8c8 2000 	str.w	r2, [r8]
    11b2:	f017 0701 	ands.w	r7, r7, #1
    11b6:	f8d3 b000 	ldr.w	fp, [r3]
    11ba:	d164      	bne.n	1286 <nrf_fprintf_fmt+0x3c2>
    11bc:	f1bb 0f00 	cmp.w	fp, #0
    11c0:	d003      	beq.n	11ca <nrf_fprintf_fmt+0x306>
    11c2:	4658      	mov	r0, fp
    11c4:	f002 fe02 	bl	3dcc <strlen>
    11c8:	4607      	mov	r7, r0
    11ca:	42bd      	cmp	r5, r7
    11cc:	d915      	bls.n	11fa <nrf_fprintf_fmt+0x336>
    11ce:	2220      	movs	r2, #32
    11d0:	e001      	b.n	11d6 <nrf_fprintf_fmt+0x312>
    11d2:	42bd      	cmp	r5, r7
    11d4:	d011      	beq.n	11fa <nrf_fprintf_fmt+0x336>
    11d6:	68b1      	ldr	r1, [r6, #8]
    11d8:	6833      	ldr	r3, [r6, #0]
    11da:	1c48      	adds	r0, r1, #1
    11dc:	60b0      	str	r0, [r6, #8]
    11de:	545a      	strb	r2, [r3, r1]
    11e0:	e9d6 3001 	ldrd	r3, r0, [r6, #4]
    11e4:	4298      	cmp	r0, r3
    11e6:	f105 35ff 	add.w	r5, r5, #4294967295	; 0xffffffff
    11ea:	d3f2      	bcc.n	11d2 <nrf_fprintf_fmt+0x30e>
    11ec:	4630      	mov	r0, r6
    11ee:	f7ff fd9d 	bl	d2c <nrf_fprintf_buffer_flush>
    11f2:	42bd      	cmp	r5, r7
    11f4:	f04f 0220 	mov.w	r2, #32
    11f8:	d1ed      	bne.n	11d6 <nrf_fprintf_fmt+0x312>
    11fa:	f89b 5000 	ldrb.w	r5, [fp]
    11fe:	2d00      	cmp	r5, #0
    1200:	f43f aee5 	beq.w	fce <nrf_fprintf_fmt+0x10a>
    1204:	2d0a      	cmp	r5, #10
    1206:	68b0      	ldr	r0, [r6, #8]
    1208:	d00f      	beq.n	122a <nrf_fprintf_fmt+0x366>
    120a:	6833      	ldr	r3, [r6, #0]
    120c:	1c42      	adds	r2, r0, #1
    120e:	60b2      	str	r2, [r6, #8]
    1210:	541d      	strb	r5, [r3, r0]
    1212:	e9d6 3001 	ldrd	r3, r0, [r6, #4]
    1216:	4298      	cmp	r0, r3
    1218:	f080 80b4 	bcs.w	1384 <nrf_fprintf_fmt+0x4c0>
    121c:	f81b 5f01 	ldrb.w	r5, [fp, #1]!
    1220:	2d00      	cmp	r5, #0
    1222:	f43f aed4 	beq.w	fce <nrf_fprintf_fmt+0x10a>
    1226:	2d0a      	cmp	r5, #10
    1228:	d1ef      	bne.n	120a <nrf_fprintf_fmt+0x346>
    122a:	6833      	ldr	r3, [r6, #0]
    122c:	1c42      	adds	r2, r0, #1
    122e:	60b2      	str	r2, [r6, #8]
    1230:	f803 a000 	strb.w	sl, [r3, r0]
    1234:	e9d6 3001 	ldrd	r3, r0, [r6, #4]
    1238:	4298      	cmp	r0, r3
    123a:	d3e6      	bcc.n	120a <nrf_fprintf_fmt+0x346>
    123c:	4630      	mov	r0, r6
    123e:	f7ff fd75 	bl	d2c <nrf_fprintf_buffer_flush>
    1242:	68b0      	ldr	r0, [r6, #8]
    1244:	e7e1      	b.n	120a <nrf_fprintf_fmt+0x346>
    1246:	6833      	ldr	r3, [r6, #0]
    1248:	1c51      	adds	r1, r2, #1
    124a:	60b1      	str	r1, [r6, #8]
    124c:	f803 a002 	strb.w	sl, [r3, r2]
    1250:	e9d6 3201 	ldrd	r3, r2, [r6, #4]
    1254:	429a      	cmp	r2, r3
    1256:	f4ff af7e 	bcc.w	1156 <nrf_fprintf_fmt+0x292>
    125a:	4630      	mov	r0, r6
    125c:	f7ff fd66 	bl	d2c <nrf_fprintf_buffer_flush>
    1260:	68b2      	ldr	r2, [r6, #8]
    1262:	e778      	b.n	1156 <nrf_fprintf_fmt+0x292>
    1264:	4630      	mov	r0, r6
    1266:	b005      	add	sp, #20
    1268:	e8bd 4ff0 	ldmia.w	sp!, {r4, r5, r6, r7, r8, r9, sl, fp, lr}
    126c:	f7ff bd5e 	b.w	d2c <nrf_fprintf_buffer_flush>
    1270:	68b3      	ldr	r3, [r6, #8]
    1272:	6831      	ldr	r1, [r6, #0]
    1274:	1c58      	adds	r0, r3, #1
    1276:	60b0      	str	r0, [r6, #8]
    1278:	54ca      	strb	r2, [r1, r3]
    127a:	e9d6 3201 	ldrd	r3, r2, [r6, #4]
    127e:	429a      	cmp	r2, r3
    1280:	d289      	bcs.n	1196 <nrf_fprintf_fmt+0x2d2>
    1282:	3401      	adds	r4, #1
    1284:	e6a4      	b.n	fd0 <nrf_fprintf_fmt+0x10c>
    1286:	f89b 3000 	ldrb.w	r3, [fp]
    128a:	2b00      	cmp	r3, #0
    128c:	f000 80d6 	beq.w	143c <nrf_fprintf_fmt+0x578>
    1290:	68b0      	ldr	r0, [r6, #8]
    1292:	465f      	mov	r7, fp
    1294:	f1cb 0201 	rsb	r2, fp, #1
    1298:	2b0a      	cmp	r3, #10
    129a:	eb02 0b07 	add.w	fp, r2, r7
    129e:	d05e      	beq.n	135e <nrf_fprintf_fmt+0x49a>
    12a0:	1c41      	adds	r1, r0, #1
    12a2:	60b1      	str	r1, [r6, #8]
    12a4:	6831      	ldr	r1, [r6, #0]
    12a6:	540b      	strb	r3, [r1, r0]
    12a8:	e9d6 3001 	ldrd	r3, r0, [r6, #4]
    12ac:	4298      	cmp	r0, r3
    12ae:	d248      	bcs.n	1342 <nrf_fprintf_fmt+0x47e>
    12b0:	f817 3f01 	ldrb.w	r3, [r7, #1]!
    12b4:	2b00      	cmp	r3, #0
    12b6:	d1ef      	bne.n	1298 <nrf_fprintf_fmt+0x3d4>
    12b8:	455d      	cmp	r5, fp
    12ba:	f67f ae88 	bls.w	fce <nrf_fprintf_fmt+0x10a>
    12be:	2720      	movs	r7, #32
    12c0:	e002      	b.n	12c8 <nrf_fprintf_fmt+0x404>
    12c2:	455d      	cmp	r5, fp
    12c4:	f43f ae83 	beq.w	fce <nrf_fprintf_fmt+0x10a>
    12c8:	68b2      	ldr	r2, [r6, #8]
    12ca:	6833      	ldr	r3, [r6, #0]
    12cc:	1c51      	adds	r1, r2, #1
    12ce:	60b1      	str	r1, [r6, #8]
    12d0:	549f      	strb	r7, [r3, r2]
    12d2:	e9d6 3201 	ldrd	r3, r2, [r6, #4]
    12d6:	429a      	cmp	r2, r3
    12d8:	f105 35ff 	add.w	r5, r5, #4294967295	; 0xffffffff
    12dc:	d3f1      	bcc.n	12c2 <nrf_fprintf_fmt+0x3fe>
    12de:	4630      	mov	r0, r6
    12e0:	f7ff fd24 	bl	d2c <nrf_fprintf_buffer_flush>
    12e4:	e7ed      	b.n	12c2 <nrf_fprintf_fmt+0x3fe>
    12e6:	07b8      	lsls	r0, r7, #30
    12e8:	d505      	bpl.n	12f6 <nrf_fprintf_fmt+0x432>
    12ea:	2b00      	cmp	r3, #0
    12ec:	f43f aeea 	beq.w	10c4 <nrf_fprintf_fmt+0x200>
    12f0:	07f9      	lsls	r1, r7, #31
    12f2:	f53f aee7 	bmi.w	10c4 <nrf_fprintf_fmt+0x200>
    12f6:	2500      	movs	r5, #0
    12f8:	e6e4      	b.n	10c4 <nrf_fprintf_fmt+0x200>
    12fa:	4630      	mov	r0, r6
    12fc:	f7ff fd16 	bl	d2c <nrf_fprintf_buffer_flush>
    1300:	68b2      	ldr	r2, [r6, #8]
    1302:	e70f      	b.n	1124 <nrf_fprintf_fmt+0x260>
    1304:	4630      	mov	r0, r6
    1306:	f7ff fd11 	bl	d2c <nrf_fprintf_buffer_flush>
    130a:	68b3      	ldr	r3, [r6, #8]
    130c:	e700      	b.n	1110 <nrf_fprintf_fmt+0x24c>
    130e:	3d01      	subs	r5, #1
    1310:	e6d2      	b.n	10b8 <nrf_fprintf_fmt+0x1f4>
    1312:	07f9      	lsls	r1, r7, #31
    1314:	f53f aed6 	bmi.w	10c4 <nrf_fprintf_fmt+0x200>
    1318:	2d00      	cmp	r5, #0
    131a:	d0ec      	beq.n	12f6 <nrf_fprintf_fmt+0x432>
    131c:	2220      	movs	r2, #32
    131e:	9902      	ldr	r1, [sp, #8]
    1320:	42a9      	cmp	r1, r5
    1322:	f4bf aecf 	bcs.w	10c4 <nrf_fprintf_fmt+0x200>
    1326:	68b1      	ldr	r1, [r6, #8]
    1328:	1c48      	adds	r0, r1, #1
    132a:	60b0      	str	r0, [r6, #8]
    132c:	6830      	ldr	r0, [r6, #0]
    132e:	5442      	strb	r2, [r0, r1]
    1330:	e9d6 0101 	ldrd	r0, r1, [r6, #4]
    1334:	4281      	cmp	r1, r0
    1336:	f105 35ff 	add.w	r5, r5, #4294967295	; 0xffffffff
    133a:	d26c      	bcs.n	1416 <nrf_fprintf_fmt+0x552>
    133c:	2d00      	cmp	r5, #0
    133e:	d1ee      	bne.n	131e <nrf_fprintf_fmt+0x45a>
    1340:	e7d9      	b.n	12f6 <nrf_fprintf_fmt+0x432>
    1342:	4630      	mov	r0, r6
    1344:	9202      	str	r2, [sp, #8]
    1346:	f7ff fcf1 	bl	d2c <nrf_fprintf_buffer_flush>
    134a:	f817 3f01 	ldrb.w	r3, [r7, #1]!
    134e:	2b00      	cmp	r3, #0
    1350:	d0b2      	beq.n	12b8 <nrf_fprintf_fmt+0x3f4>
    1352:	9a02      	ldr	r2, [sp, #8]
    1354:	68b0      	ldr	r0, [r6, #8]
    1356:	2b0a      	cmp	r3, #10
    1358:	eb02 0b07 	add.w	fp, r2, r7
    135c:	d1a0      	bne.n	12a0 <nrf_fprintf_fmt+0x3dc>
    135e:	1c41      	adds	r1, r0, #1
    1360:	60b1      	str	r1, [r6, #8]
    1362:	6831      	ldr	r1, [r6, #0]
    1364:	f801 a000 	strb.w	sl, [r1, r0]
    1368:	e9d6 1001 	ldrd	r1, r0, [r6, #4]
    136c:	4288      	cmp	r0, r1
    136e:	d397      	bcc.n	12a0 <nrf_fprintf_fmt+0x3dc>
    1370:	4630      	mov	r0, r6
    1372:	e9cd 3202 	strd	r3, r2, [sp, #8]
    1376:	f7ff fcd9 	bl	d2c <nrf_fprintf_buffer_flush>
    137a:	e9dd 3202 	ldrd	r3, r2, [sp, #8]
    137e:	68b0      	ldr	r0, [r6, #8]
    1380:	e78e      	b.n	12a0 <nrf_fprintf_fmt+0x3dc>
    1382:	4770      	bx	lr
    1384:	4630      	mov	r0, r6
    1386:	f7ff fcd1 	bl	d2c <nrf_fprintf_buffer_flush>
    138a:	f81b 5f01 	ldrb.w	r5, [fp, #1]!
    138e:	2d00      	cmp	r5, #0
    1390:	f47f af38 	bne.w	1204 <nrf_fprintf_fmt+0x340>
    1394:	e61b      	b.n	fce <nrf_fprintf_fmt+0x10a>
    1396:	2b00      	cmp	r3, #0
    1398:	f47f aea0 	bne.w	10dc <nrf_fprintf_fmt+0x218>
    139c:	b18d      	cbz	r5, 13c2 <nrf_fprintf_fmt+0x4fe>
    139e:	2230      	movs	r2, #48	; 0x30
    13a0:	9902      	ldr	r1, [sp, #8]
    13a2:	428d      	cmp	r5, r1
    13a4:	f67f ae9a 	bls.w	10dc <nrf_fprintf_fmt+0x218>
    13a8:	68b1      	ldr	r1, [r6, #8]
    13aa:	1c48      	adds	r0, r1, #1
    13ac:	60b0      	str	r0, [r6, #8]
    13ae:	6830      	ldr	r0, [r6, #0]
    13b0:	5442      	strb	r2, [r0, r1]
    13b2:	e9d6 0101 	ldrd	r0, r1, [r6, #4]
    13b6:	4281      	cmp	r1, r0
    13b8:	f105 35ff 	add.w	r5, r5, #4294967295	; 0xffffffff
    13bc:	d235      	bcs.n	142a <nrf_fprintf_fmt+0x566>
    13be:	2d00      	cmp	r5, #0
    13c0:	d1ee      	bne.n	13a0 <nrf_fprintf_fmt+0x4dc>
    13c2:	2500      	movs	r5, #0
    13c4:	e68a      	b.n	10dc <nrf_fprintf_fmt+0x218>
    13c6:	68b1      	ldr	r1, [r6, #8]
    13c8:	6832      	ldr	r2, [r6, #0]
    13ca:	1c48      	adds	r0, r1, #1
    13cc:	60b0      	str	r0, [r6, #8]
    13ce:	f1cb 0b00 	rsb	fp, fp, #0
    13d2:	202d      	movs	r0, #45	; 0x2d
    13d4:	5450      	strb	r0, [r2, r1]
    13d6:	e9d6 2101 	ldrd	r2, r1, [r6, #4]
    13da:	4291      	cmp	r1, r2
    13dc:	f4ff ae79 	bcc.w	10d2 <nrf_fprintf_fmt+0x20e>
    13e0:	4630      	mov	r0, r6
    13e2:	9303      	str	r3, [sp, #12]
    13e4:	f7ff fca2 	bl	d2c <nrf_fprintf_buffer_flush>
    13e8:	9b03      	ldr	r3, [sp, #12]
    13ea:	e672      	b.n	10d2 <nrf_fprintf_fmt+0x20e>
    13ec:	68b1      	ldr	r1, [r6, #8]
    13ee:	6832      	ldr	r2, [r6, #0]
    13f0:	1c48      	adds	r0, r1, #1
    13f2:	60b0      	str	r0, [r6, #8]
    13f4:	202b      	movs	r0, #43	; 0x2b
    13f6:	e7ed      	b.n	13d4 <nrf_fprintf_fmt+0x510>
    13f8:	6832      	ldr	r2, [r6, #0]
    13fa:	1c59      	adds	r1, r3, #1
    13fc:	60b1      	str	r1, [r6, #8]
    13fe:	f802 a003 	strb.w	sl, [r2, r3]
    1402:	e9d6 2301 	ldrd	r2, r3, [r6, #4]
    1406:	4293      	cmp	r3, r2
    1408:	f4ff aebc 	bcc.w	1184 <nrf_fprintf_fmt+0x2c0>
    140c:	4630      	mov	r0, r6
    140e:	f7ff fc8d 	bl	d2c <nrf_fprintf_buffer_flush>
    1412:	68b3      	ldr	r3, [r6, #8]
    1414:	e6b6      	b.n	1184 <nrf_fprintf_fmt+0x2c0>
    1416:	4630      	mov	r0, r6
    1418:	9303      	str	r3, [sp, #12]
    141a:	f7ff fc87 	bl	d2c <nrf_fprintf_buffer_flush>
    141e:	9b03      	ldr	r3, [sp, #12]
    1420:	2220      	movs	r2, #32
    1422:	2d00      	cmp	r5, #0
    1424:	f47f af7b 	bne.w	131e <nrf_fprintf_fmt+0x45a>
    1428:	e765      	b.n	12f6 <nrf_fprintf_fmt+0x432>
    142a:	4630      	mov	r0, r6
    142c:	9303      	str	r3, [sp, #12]
    142e:	f7ff fc7d 	bl	d2c <nrf_fprintf_buffer_flush>
    1432:	9b03      	ldr	r3, [sp, #12]
    1434:	2230      	movs	r2, #48	; 0x30
    1436:	e7c2      	b.n	13be <nrf_fprintf_fmt+0x4fa>
    1438:	2001      	movs	r0, #1
    143a:	e62e      	b.n	109a <nrf_fprintf_fmt+0x1d6>
    143c:	469b      	mov	fp, r3
    143e:	e73b      	b.n	12b8 <nrf_fprintf_fmt+0x3f4>
    1440:	00006af4 	.word	0x00006af4
    1444:	cccccccd 	.word	0xcccccccd

00001448 <nrf_memobj_alloc>:
    1448:	e92d 41f0 	stmdb	sp!, {r4, r5, r6, r7, r8, lr}
    144c:	8a05      	ldrh	r5, [r0, #16]
    144e:	3103      	adds	r1, #3
    1450:	3d04      	subs	r5, #4
    1452:	194e      	adds	r6, r1, r5
    1454:	4680      	mov	r8, r0
    1456:	fbb6 f6f5 	udiv	r6, r6, r5
    145a:	f7ff fc2b 	bl	cb4 <nrf_balloc_alloc>
    145e:	b3a0      	cbz	r0, 14ca <nrf_memobj_alloc+0x82>
    1460:	b2f6      	uxtb	r6, r6
    1462:	f44f 7380 	mov.w	r3, #256	; 0x100
    1466:	3e01      	subs	r6, #1
    1468:	4604      	mov	r4, r0
    146a:	8083      	strh	r3, [r0, #4]
    146c:	80c5      	strh	r5, [r0, #6]
    146e:	f8c0 8000 	str.w	r8, [r0]
    1472:	d02b      	beq.n	14cc <nrf_memobj_alloc+0x84>
    1474:	4603      	mov	r3, r0
    1476:	2500      	movs	r5, #0
    1478:	e008      	b.n	148c <nrf_memobj_alloc+0x44>
    147a:	7962      	ldrb	r2, [r4, #5]
    147c:	42ae      	cmp	r6, r5
    147e:	f102 0201 	add.w	r2, r2, #1
    1482:	7162      	strb	r2, [r4, #5]
    1484:	6038      	str	r0, [r7, #0]
    1486:	f8c0 8000 	str.w	r8, [r0]
    148a:	d01f      	beq.n	14cc <nrf_memobj_alloc+0x84>
    148c:	4640      	mov	r0, r8
    148e:	461f      	mov	r7, r3
    1490:	f7ff fc10 	bl	cb4 <nrf_balloc_alloc>
    1494:	3501      	adds	r5, #1
    1496:	4603      	mov	r3, r0
    1498:	2800      	cmp	r0, #0
    149a:	d1ee      	bne.n	147a <nrf_memobj_alloc+0x32>
    149c:	7967      	ldrb	r7, [r4, #5]
    149e:	1e79      	subs	r1, r7, #1
    14a0:	d017      	beq.n	14d2 <nrf_memobj_alloc+0x8a>
    14a2:	4622      	mov	r2, r4
    14a4:	3301      	adds	r3, #1
    14a6:	4299      	cmp	r1, r3
    14a8:	6812      	ldr	r2, [r2, #0]
    14aa:	d1fb      	bne.n	14a4 <nrf_memobj_alloc+0x5c>
    14ac:	f8d2 8000 	ldr.w	r8, [r2]
    14b0:	b15f      	cbz	r7, 14ca <nrf_memobj_alloc+0x82>
    14b2:	6826      	ldr	r6, [r4, #0]
    14b4:	2500      	movs	r5, #0
    14b6:	e001      	b.n	14bc <nrf_memobj_alloc+0x74>
    14b8:	4634      	mov	r4, r6
    14ba:	6836      	ldr	r6, [r6, #0]
    14bc:	4621      	mov	r1, r4
    14be:	4640      	mov	r0, r8
    14c0:	3501      	adds	r5, #1
    14c2:	f7ff fc1d 	bl	d00 <nrf_balloc_free>
    14c6:	42af      	cmp	r7, r5
    14c8:	d8f6      	bhi.n	14b8 <nrf_memobj_alloc+0x70>
    14ca:	2400      	movs	r4, #0
    14cc:	4620      	mov	r0, r4
    14ce:	e8bd 81f0 	ldmia.w	sp!, {r4, r5, r6, r7, r8, pc}
    14d2:	6820      	ldr	r0, [r4, #0]
    14d4:	4621      	mov	r1, r4
    14d6:	f7ff fc13 	bl	d00 <nrf_balloc_free>
    14da:	e7f6      	b.n	14ca <nrf_memobj_alloc+0x82>

000014dc <nrf_memobj_get>:
    14dc:	2101      	movs	r1, #1
    14de:	3004      	adds	r0, #4
    14e0:	f7ff bbb8 	b.w	c54 <nrf_atomic_u32_add>

000014e4 <nrf_memobj_put>:
    14e4:	e92d 41f0 	stmdb	sp!, {r4, r5, r6, r7, r8, lr}
    14e8:	2101      	movs	r1, #1
    14ea:	4604      	mov	r4, r0
    14ec:	3004      	adds	r0, #4
    14ee:	f7ff fbbd 	bl	c6c <nrf_atomic_u32_sub>
    14f2:	f010 03ff 	ands.w	r3, r0, #255	; 0xff
    14f6:	d001      	beq.n	14fc <nrf_memobj_put+0x18>
    14f8:	e8bd 81f0 	ldmia.w	sp!, {r4, r5, r6, r7, r8, pc}
    14fc:	7967      	ldrb	r7, [r4, #5]
    14fe:	1e79      	subs	r1, r7, #1
    1500:	d016      	beq.n	1530 <nrf_memobj_put+0x4c>
    1502:	4622      	mov	r2, r4
    1504:	3301      	adds	r3, #1
    1506:	4299      	cmp	r1, r3
    1508:	6812      	ldr	r2, [r2, #0]
    150a:	d1fb      	bne.n	1504 <nrf_memobj_put+0x20>
    150c:	f8d2 8000 	ldr.w	r8, [r2]
    1510:	2f00      	cmp	r7, #0
    1512:	d0f1      	beq.n	14f8 <nrf_memobj_put+0x14>
    1514:	6826      	ldr	r6, [r4, #0]
    1516:	2500      	movs	r5, #0
    1518:	e001      	b.n	151e <nrf_memobj_put+0x3a>
    151a:	4634      	mov	r4, r6
    151c:	6836      	ldr	r6, [r6, #0]
    151e:	4621      	mov	r1, r4
    1520:	4640      	mov	r0, r8
    1522:	3501      	adds	r5, #1
    1524:	f7ff fbec 	bl	d00 <nrf_balloc_free>
    1528:	42af      	cmp	r7, r5
    152a:	d8f6      	bhi.n	151a <nrf_memobj_put+0x36>
    152c:	e8bd 81f0 	ldmia.w	sp!, {r4, r5, r6, r7, r8, pc}
    1530:	6820      	ldr	r0, [r4, #0]
    1532:	4621      	mov	r1, r4
    1534:	e8bd 41f0 	ldmia.w	sp!, {r4, r5, r6, r7, r8, lr}
    1538:	f7ff bbe2 	b.w	d00 <nrf_balloc_free>

0000153c <nrf_memobj_write>:
    153c:	e92d 43f8 	stmdb	sp!, {r3, r4, r5, r6, r7, r8, r9, lr}
    1540:	4688      	mov	r8, r1
    1542:	88c7      	ldrh	r7, [r0, #6]
    1544:	7941      	ldrb	r1, [r0, #5]
    1546:	fb07 f101 	mul.w	r1, r7, r1
    154a:	3904      	subs	r1, #4
    154c:	eb02 0c03 	add.w	ip, r2, r3
    1550:	1d1e      	adds	r6, r3, #4
    1552:	4561      	cmp	r1, ip
    1554:	4615      	mov	r5, r2
    1556:	bf38      	it	cc
    1558:	1acd      	subcc	r5, r1, r3
    155a:	42b7      	cmp	r7, r6
    155c:	4604      	mov	r4, r0
    155e:	fbb6 f2f7 	udiv	r2, r6, r7
    1562:	fb07 6012 	mls	r0, r7, r2, r6
    1566:	d802      	bhi.n	156e <nrf_memobj_write+0x32>
    1568:	3a01      	subs	r2, #1
    156a:	6824      	ldr	r4, [r4, #0]
    156c:	d1fc      	bne.n	1568 <nrf_memobj_write+0x2c>
    156e:	1a3e      	subs	r6, r7, r0
    1570:	42ae      	cmp	r6, r5
    1572:	bf28      	it	cs
    1574:	462e      	movcs	r6, r5
    1576:	b19d      	cbz	r5, 15a0 <nrf_memobj_write+0x64>
    1578:	f04f 0900 	mov.w	r9, #0
    157c:	3004      	adds	r0, #4
    157e:	1bad      	subs	r5, r5, r6
    1580:	4632      	mov	r2, r6
    1582:	eb08 0109 	add.w	r1, r8, r9
    1586:	4420      	add	r0, r4
    1588:	f001 ffa0 	bl	34cc <memcpy>
    158c:	42af      	cmp	r7, r5
    158e:	44b1      	add	r9, r6
    1590:	6824      	ldr	r4, [r4, #0]
    1592:	463e      	mov	r6, r7
    1594:	f04f 0000 	mov.w	r0, #0
    1598:	bf28      	it	cs
    159a:	462e      	movcs	r6, r5
    159c:	2d00      	cmp	r5, #0
    159e:	d1ed      	bne.n	157c <nrf_memobj_write+0x40>
    15a0:	e8bd 83f8 	ldmia.w	sp!, {r3, r4, r5, r6, r7, r8, r9, pc}

000015a4 <nrf_memobj_read>:
    15a4:	e92d 43f8 	stmdb	sp!, {r3, r4, r5, r6, r7, r8, r9, lr}
    15a8:	4604      	mov	r4, r0
    15aa:	88c7      	ldrh	r7, [r0, #6]
    15ac:	7940      	ldrb	r0, [r0, #5]
    15ae:	fb07 f000 	mul.w	r0, r7, r0
    15b2:	3804      	subs	r0, #4
    15b4:	eb02 0c03 	add.w	ip, r2, r3
    15b8:	1d1e      	adds	r6, r3, #4
    15ba:	4560      	cmp	r0, ip
    15bc:	4615      	mov	r5, r2
    15be:	bf38      	it	cc
    15c0:	1ac5      	subcc	r5, r0, r3
    15c2:	42b7      	cmp	r7, r6
    15c4:	4688      	mov	r8, r1
    15c6:	fbb6 f1f7 	udiv	r1, r6, r7
    15ca:	fb07 6211 	mls	r2, r7, r1, r6
    15ce:	d802      	bhi.n	15d6 <nrf_memobj_read+0x32>
    15d0:	3901      	subs	r1, #1
    15d2:	6824      	ldr	r4, [r4, #0]
    15d4:	d1fc      	bne.n	15d0 <nrf_memobj_read+0x2c>
    15d6:	1abe      	subs	r6, r7, r2
    15d8:	42ae      	cmp	r6, r5
    15da:	bf28      	it	cs
    15dc:	462e      	movcs	r6, r5
    15de:	b19d      	cbz	r5, 1608 <nrf_memobj_read+0x64>
    15e0:	f04f 0900 	mov.w	r9, #0
    15e4:	1d11      	adds	r1, r2, #4
    15e6:	1bad      	subs	r5, r5, r6
    15e8:	4632      	mov	r2, r6
    15ea:	4421      	add	r1, r4
    15ec:	eb08 0009 	add.w	r0, r8, r9
    15f0:	f001 ff6c 	bl	34cc <memcpy>
    15f4:	42af      	cmp	r7, r5
    15f6:	44b1      	add	r9, r6
    15f8:	6824      	ldr	r4, [r4, #0]
    15fa:	463e      	mov	r6, r7
    15fc:	f04f 0200 	mov.w	r2, #0
    1600:	bf28      	it	cs
    1602:	462e      	movcs	r6, r5
    1604:	2d00      	cmp	r5, #0
    1606:	d1ed      	bne.n	15e4 <nrf_memobj_read+0x40>
    1608:	e8bd 83f8 	ldmia.w	sp!, {r3, r4, r5, r6, r7, r8, r9, pc}

0000160c <UARTE0_UART0_IRQHandler>:
    160c:	4b01      	ldr	r3, [pc, #4]	; (1614 <UARTE0_UART0_IRQHandler+0x8>)
    160e:	681b      	ldr	r3, [r3, #0]
    1610:	4718      	bx	r3
    1612:	bf00      	nop
    1614:	20000750 	.word	0x20000750

00001618 <nrfx_prs_acquire>:
    1618:	b538      	push	{r3, r4, r5, lr}
    161a:	4b0c      	ldr	r3, [pc, #48]	; (164c <nrfx_prs_acquire+0x34>)
    161c:	4298      	cmp	r0, r3
    161e:	d113      	bne.n	1648 <nrfx_prs_acquire+0x30>
    1620:	2000      	movs	r0, #0
    1622:	460d      	mov	r5, r1
    1624:	f7ff fafa 	bl	c1c <app_util_critical_region_enter>
    1628:	4b09      	ldr	r3, [pc, #36]	; (1650 <nrfx_prs_acquire+0x38>)
    162a:	791c      	ldrb	r4, [r3, #4]
    162c:	b124      	cbz	r4, 1638 <nrfx_prs_acquire+0x20>
    162e:	2000      	movs	r0, #0
    1630:	f7ff fafc 	bl	c2c <app_util_critical_region_exit>
    1634:	2011      	movs	r0, #17
    1636:	bd38      	pop	{r3, r4, r5, pc}
    1638:	2201      	movs	r2, #1
    163a:	4620      	mov	r0, r4
    163c:	601d      	str	r5, [r3, #0]
    163e:	711a      	strb	r2, [r3, #4]
    1640:	f7ff faf4 	bl	c2c <app_util_critical_region_exit>
    1644:	4620      	mov	r0, r4
    1646:	bd38      	pop	{r3, r4, r5, pc}
    1648:	2000      	movs	r0, #0
    164a:	bd38      	pop	{r3, r4, r5, pc}
    164c:	40002000 	.word	0x40002000
    1650:	20000750 	.word	0x20000750

00001654 <nrfx_prs_release>:
    1654:	4b03      	ldr	r3, [pc, #12]	; (1664 <nrfx_prs_release+0x10>)
    1656:	4298      	cmp	r0, r3
    1658:	d103      	bne.n	1662 <nrfx_prs_release+0xe>
    165a:	4b03      	ldr	r3, [pc, #12]	; (1668 <nrfx_prs_release+0x14>)
    165c:	2200      	movs	r2, #0
    165e:	601a      	str	r2, [r3, #0]
    1660:	711a      	strb	r2, [r3, #4]
    1662:	4770      	bx	lr
    1664:	40002000 	.word	0x40002000
    1668:	20000750 	.word	0x20000750
    166c:	00000000 	.word	0x00000000

00001670 <nrfx_uart_0_irq_handler>:
    1670:	b510      	push	{r4, lr}
    1672:	4a71      	ldr	r2, [pc, #452]	; (1838 <nrfx_uart_0_irq_handler+0x1c8>)
    1674:	f8d2 3304 	ldr.w	r3, [r2, #772]	; 0x304
    1678:	0599      	lsls	r1, r3, #22
    167a:	b08a      	sub	sp, #40	; 0x28
    167c:	d568      	bpl.n	1750 <nrfx_uart_0_irq_handler+0xe0>
    167e:	f8d2 3124 	ldr.w	r3, [r2, #292]	; 0x124
    1682:	2b00      	cmp	r3, #0
    1684:	d064      	beq.n	1750 <nrfx_uart_0_irq_handler+0xe0>
    1686:	2300      	movs	r3, #0
    1688:	f8c2 3124 	str.w	r3, [r2, #292]	; 0x124
    168c:	f8d2 3124 	ldr.w	r3, [r2, #292]	; 0x124
    1690:	9301      	str	r3, [sp, #4]
    1692:	f44f 7101 	mov.w	r1, #516	; 0x204
    1696:	4b69      	ldr	r3, [pc, #420]	; (183c <nrfx_uart_0_irq_handler+0x1cc>)
    1698:	9801      	ldr	r0, [sp, #4]
    169a:	f8c2 1308 	str.w	r1, [r2, #776]	; 0x308
    169e:	f893 1029 	ldrb.w	r1, [r3, #41]	; 0x29
    16a2:	b909      	cbnz	r1, 16a8 <nrfx_uart_0_irq_handler+0x38>
    16a4:	2101      	movs	r1, #1
    16a6:	6051      	str	r1, [r2, #4]
    16a8:	4963      	ldr	r1, [pc, #396]	; (1838 <nrfx_uart_0_irq_handler+0x1c8>)
    16aa:	2202      	movs	r2, #2
    16ac:	f88d 2018 	strb.w	r2, [sp, #24]
    16b0:	f8d1 2480 	ldr.w	r2, [r1, #1152]	; 0x480
    16b4:	f8c1 2480 	str.w	r2, [r1, #1152]	; 0x480
    16b8:	ed9f 7b5d 	vldr	d7, [pc, #372]	; 1830 <nrfx_uart_0_irq_handler+0x1c0>
    16bc:	6999      	ldr	r1, [r3, #24]
    16be:	68d8      	ldr	r0, [r3, #12]
    16c0:	e9cd 1208 	strd	r1, r2, [sp, #32]
    16c4:	ed83 7b06 	vstr	d7, [r3, #24]
    16c8:	e9d3 1200 	ldrd	r1, r2, [r3]
    16cc:	9007      	str	r0, [sp, #28]
    16ce:	a806      	add	r0, sp, #24
    16d0:	4790      	blx	r2
    16d2:	4a59      	ldr	r2, [pc, #356]	; (1838 <nrfx_uart_0_irq_handler+0x1c8>)
    16d4:	f8d2 311c 	ldr.w	r3, [r2, #284]	; 0x11c
    16d8:	b1c3      	cbz	r3, 170c <nrfx_uart_0_irq_handler+0x9c>
    16da:	4b58      	ldr	r3, [pc, #352]	; (183c <nrfx_uart_0_irq_handler+0x1cc>)
    16dc:	6958      	ldr	r0, [r3, #20]
    16de:	6a19      	ldr	r1, [r3, #32]
    16e0:	4288      	cmp	r0, r1
    16e2:	d96a      	bls.n	17ba <nrfx_uart_0_irq_handler+0x14a>
    16e4:	f893 1028 	ldrb.w	r1, [r3, #40]	; 0x28
    16e8:	f001 00ff 	and.w	r0, r1, #255	; 0xff
    16ec:	2900      	cmp	r1, #0
    16ee:	d164      	bne.n	17ba <nrfx_uart_0_irq_handler+0x14a>
    16f0:	f8c2 011c 	str.w	r0, [r2, #284]	; 0x11c
    16f4:	f8d2 111c 	ldr.w	r1, [r2, #284]	; 0x11c
    16f8:	9103      	str	r1, [sp, #12]
    16fa:	9903      	ldr	r1, [sp, #12]
    16fc:	689c      	ldr	r4, [r3, #8]
    16fe:	6a18      	ldr	r0, [r3, #32]
    1700:	6a19      	ldr	r1, [r3, #32]
    1702:	5c20      	ldrb	r0, [r4, r0]
    1704:	3101      	adds	r1, #1
    1706:	6219      	str	r1, [r3, #32]
    1708:	f8c2 051c 	str.w	r0, [r2, #1308]	; 0x51c
    170c:	4a4a      	ldr	r2, [pc, #296]	; (1838 <nrfx_uart_0_irq_handler+0x1c8>)
    170e:	f8d2 3144 	ldr.w	r3, [r2, #324]	; 0x144
    1712:	b1db      	cbz	r3, 174c <nrfx_uart_0_irq_handler+0xdc>
    1714:	2100      	movs	r1, #0
    1716:	4b49      	ldr	r3, [pc, #292]	; (183c <nrfx_uart_0_irq_handler+0x1cc>)
    1718:	f8c2 1144 	str.w	r1, [r2, #324]	; 0x144
    171c:	f8d2 0144 	ldr.w	r0, [r2, #324]	; 0x144
    1720:	f893 1029 	ldrb.w	r1, [r3, #41]	; 0x29
    1724:	9000      	str	r0, [sp, #0]
    1726:	9800      	ldr	r0, [sp, #0]
    1728:	b109      	cbz	r1, 172e <nrfx_uart_0_irq_handler+0xbe>
    172a:	2101      	movs	r1, #1
    172c:	6011      	str	r1, [r2, #0]
    172e:	699a      	ldr	r2, [r3, #24]
    1730:	b162      	cbz	r2, 174c <nrfx_uart_0_irq_handler+0xdc>
    1732:	68d8      	ldr	r0, [r3, #12]
    1734:	6a5c      	ldr	r4, [r3, #36]	; 0x24
    1736:	2100      	movs	r1, #0
    1738:	2201      	movs	r2, #1
    173a:	e9cd 0407 	strd	r0, r4, [sp, #28]
    173e:	6199      	str	r1, [r3, #24]
    1740:	f88d 2018 	strb.w	r2, [sp, #24]
    1744:	a806      	add	r0, sp, #24
    1746:	e9d3 1200 	ldrd	r1, r2, [r3]
    174a:	4790      	blx	r2
    174c:	b00a      	add	sp, #40	; 0x28
    174e:	bd10      	pop	{r4, pc}
    1750:	4a39      	ldr	r2, [pc, #228]	; (1838 <nrfx_uart_0_irq_handler+0x1c8>)
    1752:	f8d2 3304 	ldr.w	r3, [r2, #772]	; 0x304
    1756:	075b      	lsls	r3, r3, #29
    1758:	d5bb      	bpl.n	16d2 <nrfx_uart_0_irq_handler+0x62>
    175a:	f8d2 3108 	ldr.w	r3, [r2, #264]	; 0x108
    175e:	2b00      	cmp	r3, #0
    1760:	d0b7      	beq.n	16d2 <nrfx_uart_0_irq_handler+0x62>
    1762:	4b36      	ldr	r3, [pc, #216]	; (183c <nrfx_uart_0_irq_handler+0x1cc>)
    1764:	6999      	ldr	r1, [r3, #24]
    1766:	2900      	cmp	r1, #0
    1768:	d03e      	beq.n	17e8 <nrfx_uart_0_irq_handler+0x178>
    176a:	2100      	movs	r1, #0
    176c:	f8c2 1108 	str.w	r1, [r2, #264]	; 0x108
    1770:	f8d2 1108 	ldr.w	r1, [r2, #264]	; 0x108
    1774:	9104      	str	r1, [sp, #16]
    1776:	9904      	ldr	r1, [sp, #16]
    1778:	68d8      	ldr	r0, [r3, #12]
    177a:	6a59      	ldr	r1, [r3, #36]	; 0x24
    177c:	f8d2 2518 	ldr.w	r2, [r2, #1304]	; 0x518
    1780:	5442      	strb	r2, [r0, r1]
    1782:	6a5a      	ldr	r2, [r3, #36]	; 0x24
    1784:	6999      	ldr	r1, [r3, #24]
    1786:	3201      	adds	r2, #1
    1788:	625a      	str	r2, [r3, #36]	; 0x24
    178a:	6a5a      	ldr	r2, [r3, #36]	; 0x24
    178c:	428a      	cmp	r2, r1
    178e:	d1a0      	bne.n	16d2 <nrfx_uart_0_irq_handler+0x62>
    1790:	69da      	ldr	r2, [r3, #28]
    1792:	2a00      	cmp	r2, #0
    1794:	d031      	beq.n	17fa <nrfx_uart_0_irq_handler+0x18a>
    1796:	619a      	str	r2, [r3, #24]
    1798:	691a      	ldr	r2, [r3, #16]
    179a:	68d8      	ldr	r0, [r3, #12]
    179c:	6a5c      	ldr	r4, [r3, #36]	; 0x24
    179e:	60da      	str	r2, [r3, #12]
    17a0:	2100      	movs	r1, #0
    17a2:	2201      	movs	r2, #1
    17a4:	9408      	str	r4, [sp, #32]
    17a6:	61d9      	str	r1, [r3, #28]
    17a8:	6259      	str	r1, [r3, #36]	; 0x24
    17aa:	9007      	str	r0, [sp, #28]
    17ac:	685c      	ldr	r4, [r3, #4]
    17ae:	6819      	ldr	r1, [r3, #0]
    17b0:	f88d 2018 	strb.w	r2, [sp, #24]
    17b4:	a806      	add	r0, sp, #24
    17b6:	47a0      	blx	r4
    17b8:	e78b      	b.n	16d2 <nrfx_uart_0_irq_handler+0x62>
    17ba:	4a1f      	ldr	r2, [pc, #124]	; (1838 <nrfx_uart_0_irq_handler+0x1c8>)
    17bc:	2000      	movs	r0, #0
    17be:	f8c2 011c 	str.w	r0, [r2, #284]	; 0x11c
    17c2:	f8d2 211c 	ldr.w	r2, [r2, #284]	; 0x11c
    17c6:	9202      	str	r2, [sp, #8]
    17c8:	9a02      	ldr	r2, [sp, #8]
    17ca:	695a      	ldr	r2, [r3, #20]
    17cc:	2a00      	cmp	r2, #0
    17ce:	d09d      	beq.n	170c <nrfx_uart_0_irq_handler+0x9c>
    17d0:	e9d3 2101 	ldrd	r2, r1, [r3, #4]
    17d4:	695c      	ldr	r4, [r3, #20]
    17d6:	f88d 0018 	strb.w	r0, [sp, #24]
    17da:	e9cd 1407 	strd	r1, r4, [sp, #28]
    17de:	6158      	str	r0, [r3, #20]
    17e0:	6819      	ldr	r1, [r3, #0]
    17e2:	a806      	add	r0, sp, #24
    17e4:	4790      	blx	r2
    17e6:	e791      	b.n	170c <nrfx_uart_0_irq_handler+0x9c>
    17e8:	f8c2 1108 	str.w	r1, [r2, #264]	; 0x108
    17ec:	f8d2 0108 	ldr.w	r0, [r2, #264]	; 0x108
    17f0:	9005      	str	r0, [sp, #20]
    17f2:	9805      	ldr	r0, [sp, #20]
    17f4:	f8d2 2518 	ldr.w	r2, [r2, #1304]	; 0x518
    17f8:	e7c7      	b.n	178a <nrfx_uart_0_irq_handler+0x11a>
    17fa:	f893 2029 	ldrb.w	r2, [r3, #41]	; 0x29
    17fe:	b912      	cbnz	r2, 1806 <nrfx_uart_0_irq_handler+0x196>
    1800:	4a0d      	ldr	r2, [pc, #52]	; (1838 <nrfx_uart_0_irq_handler+0x1c8>)
    1802:	2101      	movs	r1, #1
    1804:	6051      	str	r1, [r2, #4]
    1806:	4a0c      	ldr	r2, [pc, #48]	; (1838 <nrfx_uart_0_irq_handler+0x1c8>)
    1808:	f44f 7101 	mov.w	r1, #516	; 0x204
    180c:	f8c2 1308 	str.w	r1, [r2, #776]	; 0x308
    1810:	68d8      	ldr	r0, [r3, #12]
    1812:	6a5c      	ldr	r4, [r3, #36]	; 0x24
    1814:	2100      	movs	r1, #0
    1816:	2201      	movs	r2, #1
    1818:	6199      	str	r1, [r3, #24]
    181a:	f88d 2018 	strb.w	r2, [sp, #24]
    181e:	e9d3 1200 	ldrd	r1, r2, [r3]
    1822:	e9cd 0407 	strd	r0, r4, [sp, #28]
    1826:	a806      	add	r0, sp, #24
    1828:	4790      	blx	r2
    182a:	e752      	b.n	16d2 <nrfx_uart_0_irq_handler+0x62>
    182c:	f3af 8000 	nop.w
	...
    1838:	40002000 	.word	0x40002000
    183c:	20000758 	.word	0x20000758

00001840 <nrfx_uart_init>:
    1840:	e92d 41f0 	stmdb	sp!, {r4, r5, r6, r7, r8, lr}
    1844:	4e60      	ldr	r6, [pc, #384]	; (19c8 <nrfx_uart_init+0x188>)
    1846:	f890 8004 	ldrb.w	r8, [r0, #4]
    184a:	232c      	movs	r3, #44	; 0x2c
    184c:	fb03 6308 	mla	r3, r3, r8, r6
    1850:	b082      	sub	sp, #8
    1852:	f893 302a 	ldrb.w	r3, [r3, #42]	; 0x2a
    1856:	2b00      	cmp	r3, #0
    1858:	f040 8089 	bne.w	196e <nrfx_uart_init+0x12e>
    185c:	4605      	mov	r5, r0
    185e:	460c      	mov	r4, r1
    1860:	6800      	ldr	r0, [r0, #0]
    1862:	495a      	ldr	r1, [pc, #360]	; (19cc <nrfx_uart_init+0x18c>)
    1864:	4617      	mov	r7, r2
    1866:	f7ff fed7 	bl	1618 <nrfx_prs_acquire>
    186a:	2800      	cmp	r0, #0
    186c:	d17b      	bne.n	1966 <nrfx_uart_init+0x126>
    186e:	6823      	ldr	r3, [r4, #0]
    1870:	1c59      	adds	r1, r3, #1
    1872:	d00c      	beq.n	188e <nrfx_uart_init+0x4e>
    1874:	f04f 41a0 	mov.w	r1, #1342177280	; 0x50000000
    1878:	2201      	movs	r2, #1
    187a:	fa02 f303 	lsl.w	r3, r2, r3
    187e:	f8c1 3508 	str.w	r3, [r1, #1288]	; 0x508
    1882:	6823      	ldr	r3, [r4, #0]
    1884:	f503 73e0 	add.w	r3, r3, #448	; 0x1c0
    1888:	2203      	movs	r2, #3
    188a:	f841 2023 	str.w	r2, [r1, r3, lsl #2]
    188e:	6863      	ldr	r3, [r4, #4]
    1890:	1c5a      	adds	r2, r3, #1
    1892:	d006      	beq.n	18a2 <nrfx_uart_init+0x62>
    1894:	f503 73e0 	add.w	r3, r3, #448	; 0x1c0
    1898:	f04f 42a0 	mov.w	r2, #1342177280	; 0x50000000
    189c:	2100      	movs	r1, #0
    189e:	f842 1023 	str.w	r1, [r2, r3, lsl #2]
    18a2:	682b      	ldr	r3, [r5, #0]
    18a4:	69a2      	ldr	r2, [r4, #24]
    18a6:	f8c3 2524 	str.w	r2, [r3, #1316]	; 0x524
    18aa:	7d22      	ldrb	r2, [r4, #20]
    18ac:	7d63      	ldrb	r3, [r4, #21]
    18ae:	4313      	orrs	r3, r2
    18b0:	682a      	ldr	r2, [r5, #0]
    18b2:	f8c2 356c 	str.w	r3, [r2, #1388]	; 0x56c
    18b6:	e9d4 1200 	ldrd	r1, r2, [r4]
    18ba:	682b      	ldr	r3, [r5, #0]
    18bc:	f8c3 2514 	str.w	r2, [r3, #1300]	; 0x514
    18c0:	f8c3 150c 	str.w	r1, [r3, #1292]	; 0x50c
    18c4:	7d23      	ldrb	r3, [r4, #20]
    18c6:	2b01      	cmp	r3, #1
    18c8:	d05c      	beq.n	1984 <nrfx_uart_init+0x144>
    18ca:	232c      	movs	r3, #44	; 0x2c
    18cc:	fb03 f308 	mul.w	r3, r3, r8
    18d0:	18f2      	adds	r2, r6, r3
    18d2:	6057      	str	r7, [r2, #4]
    18d4:	6922      	ldr	r2, [r4, #16]
    18d6:	50f2      	str	r2, [r6, r3]
    18d8:	b397      	cbz	r7, 1940 <nrfx_uart_init+0x100>
    18da:	682a      	ldr	r2, [r5, #0]
    18dc:	7f23      	ldrb	r3, [r4, #28]
    18de:	2100      	movs	r1, #0
    18e0:	f8c2 111c 	str.w	r1, [r2, #284]	; 0x11c
    18e4:	f8d2 211c 	ldr.w	r2, [r2, #284]	; 0x11c
    18e8:	9200      	str	r2, [sp, #0]
    18ea:	9a00      	ldr	r2, [sp, #0]
    18ec:	682a      	ldr	r2, [r5, #0]
    18ee:	f8c2 1144 	str.w	r1, [r2, #324]	; 0x144
    18f2:	f8d2 2144 	ldr.w	r2, [r2, #324]	; 0x144
    18f6:	9201      	str	r2, [sp, #4]
    18f8:	9a01      	ldr	r2, [sp, #4]
    18fa:	682a      	ldr	r2, [r5, #0]
    18fc:	4934      	ldr	r1, [pc, #208]	; (19d0 <nrfx_uart_init+0x190>)
    18fe:	f8c2 1304 	str.w	r1, [r2, #772]	; 0x304
    1902:	682a      	ldr	r2, [r5, #0]
    1904:	f342 3107 	sbfx	r1, r2, #12, #8
    1908:	2900      	cmp	r1, #0
    190a:	ea4f 3212 	mov.w	r2, r2, lsr #12
    190e:	db32      	blt.n	1976 <nrfx_uart_init+0x136>
    1910:	f101 4160 	add.w	r1, r1, #3758096384	; 0xe0000000
    1914:	015b      	lsls	r3, r3, #5
    1916:	f501 4161 	add.w	r1, r1, #57600	; 0xe100
    191a:	b2db      	uxtb	r3, r3
    191c:	f881 3300 	strb.w	r3, [r1, #768]	; 0x300
    1920:	682b      	ldr	r3, [r5, #0]
    1922:	f343 3207 	sbfx	r2, r3, #12, #8
    1926:	2a00      	cmp	r2, #0
    1928:	ea4f 3113 	mov.w	r1, r3, lsr #12
    192c:	db09      	blt.n	1942 <nrfx_uart_init+0x102>
    192e:	4c29      	ldr	r4, [pc, #164]	; (19d4 <nrfx_uart_init+0x194>)
    1930:	0952      	lsrs	r2, r2, #5
    1932:	2301      	movs	r3, #1
    1934:	f001 011f 	and.w	r1, r1, #31
    1938:	fa03 f101 	lsl.w	r1, r3, r1
    193c:	f844 1022 	str.w	r1, [r4, r2, lsl #2]
    1940:	682b      	ldr	r3, [r5, #0]
    1942:	2204      	movs	r2, #4
    1944:	f8c3 2500 	str.w	r2, [r3, #1280]	; 0x500
    1948:	232c      	movs	r3, #44	; 0x2c
    194a:	fb03 6608 	mla	r6, r3, r8, r6
    194e:	2201      	movs	r2, #1
    1950:	2300      	movs	r3, #0
    1952:	e9c6 3306 	strd	r3, r3, [r6, #24]
    1956:	f886 3029 	strb.w	r3, [r6, #41]	; 0x29
    195a:	6173      	str	r3, [r6, #20]
    195c:	f886 202a 	strb.w	r2, [r6, #42]	; 0x2a
    1960:	b002      	add	sp, #8
    1962:	e8bd 81f0 	ldmia.w	sp!, {r4, r5, r6, r7, r8, pc}
    1966:	2011      	movs	r0, #17
    1968:	b002      	add	sp, #8
    196a:	e8bd 81f0 	ldmia.w	sp!, {r4, r5, r6, r7, r8, pc}
    196e:	2008      	movs	r0, #8
    1970:	b002      	add	sp, #8
    1972:	e8bd 81f0 	ldmia.w	sp!, {r4, r5, r6, r7, r8, pc}
    1976:	4918      	ldr	r1, [pc, #96]	; (19d8 <nrfx_uart_init+0x198>)
    1978:	f002 020f 	and.w	r2, r2, #15
    197c:	015b      	lsls	r3, r3, #5
    197e:	b2db      	uxtb	r3, r3
    1980:	548b      	strb	r3, [r1, r2]
    1982:	e7cd      	b.n	1920 <nrfx_uart_init+0xe0>
    1984:	68a3      	ldr	r3, [r4, #8]
    1986:	1c59      	adds	r1, r3, #1
    1988:	d006      	beq.n	1998 <nrfx_uart_init+0x158>
    198a:	f503 73e0 	add.w	r3, r3, #448	; 0x1c0
    198e:	f04f 42a0 	mov.w	r2, #1342177280	; 0x50000000
    1992:	2100      	movs	r1, #0
    1994:	f842 1023 	str.w	r1, [r2, r3, lsl #2]
    1998:	68e3      	ldr	r3, [r4, #12]
    199a:	1c5a      	adds	r2, r3, #1
    199c:	d00d      	beq.n	19ba <nrfx_uart_init+0x17a>
    199e:	f04f 41a0 	mov.w	r1, #1342177280	; 0x50000000
    19a2:	2201      	movs	r2, #1
    19a4:	fa02 f303 	lsl.w	r3, r2, r3
    19a8:	f8c1 3508 	str.w	r3, [r1, #1288]	; 0x508
    19ac:	68e3      	ldr	r3, [r4, #12]
    19ae:	f503 73e0 	add.w	r3, r3, #448	; 0x1c0
    19b2:	2203      	movs	r2, #3
    19b4:	f841 2023 	str.w	r2, [r1, r3, lsl #2]
    19b8:	68e3      	ldr	r3, [r4, #12]
    19ba:	682a      	ldr	r2, [r5, #0]
    19bc:	68a1      	ldr	r1, [r4, #8]
    19be:	f8c2 3508 	str.w	r3, [r2, #1288]	; 0x508
    19c2:	f8c2 1510 	str.w	r1, [r2, #1296]	; 0x510
    19c6:	e780      	b.n	18ca <nrfx_uart_init+0x8a>
    19c8:	20000758 	.word	0x20000758
    19cc:	00001671 	.word	0x00001671
    19d0:	00020080 	.word	0x00020080
    19d4:	e000e100 	.word	0xe000e100
    19d8:	e000ed14 	.word	0xe000ed14

000019dc <nrfx_uart_uninit>:
    19dc:	b5f8      	push	{r3, r4, r5, r6, r7, lr}
    19de:	6803      	ldr	r3, [r0, #0]
    19e0:	7906      	ldrb	r6, [r0, #4]
    19e2:	4c32      	ldr	r4, [pc, #200]	; (1aac <nrfx_uart_uninit+0xd0>)
    19e4:	2200      	movs	r2, #0
    19e6:	f8c3 2500 	str.w	r2, [r3, #1280]	; 0x500
    19ea:	232c      	movs	r3, #44	; 0x2c
    19ec:	fb03 4306 	mla	r3, r3, r6, r4
    19f0:	685b      	ldr	r3, [r3, #4]
    19f2:	b1c3      	cbz	r3, 1a26 <nrfx_uart_uninit+0x4a>
    19f4:	6803      	ldr	r3, [r0, #0]
    19f6:	4a2e      	ldr	r2, [pc, #184]	; (1ab0 <nrfx_uart_uninit+0xd4>)
    19f8:	f8c3 2308 	str.w	r2, [r3, #776]	; 0x308
    19fc:	6803      	ldr	r3, [r0, #0]
    19fe:	f343 3207 	sbfx	r2, r3, #12, #8
    1a02:	2a00      	cmp	r2, #0
    1a04:	ea4f 3113 	mov.w	r1, r3, lsr #12
    1a08:	db0e      	blt.n	1a28 <nrfx_uart_uninit+0x4c>
    1a0a:	0952      	lsrs	r2, r2, #5
    1a0c:	4d29      	ldr	r5, [pc, #164]	; (1ab4 <nrfx_uart_uninit+0xd8>)
    1a0e:	3220      	adds	r2, #32
    1a10:	2301      	movs	r3, #1
    1a12:	f001 011f 	and.w	r1, r1, #31
    1a16:	fa03 f101 	lsl.w	r1, r3, r1
    1a1a:	f845 1022 	str.w	r1, [r5, r2, lsl #2]
    1a1e:	f3bf 8f4f 	dsb	sy
    1a22:	f3bf 8f6f 	isb	sy
    1a26:	6803      	ldr	r3, [r0, #0]
    1a28:	f8d3 c50c 	ldr.w	ip, [r3, #1292]	; 0x50c
    1a2c:	f8d3 7514 	ldr.w	r7, [r3, #1300]	; 0x514
    1a30:	f8d3 1508 	ldr.w	r1, [r3, #1288]	; 0x508
    1a34:	f8d3 5510 	ldr.w	r5, [r3, #1296]	; 0x510
    1a38:	f04f 32ff 	mov.w	r2, #4294967295	; 0xffffffff
    1a3c:	f8c3 2514 	str.w	r2, [r3, #1300]	; 0x514
    1a40:	f8c3 250c 	str.w	r2, [r3, #1292]	; 0x50c
    1a44:	6803      	ldr	r3, [r0, #0]
    1a46:	4594      	cmp	ip, r2
    1a48:	f8c3 2508 	str.w	r2, [r3, #1288]	; 0x508
    1a4c:	f8c3 2510 	str.w	r2, [r3, #1296]	; 0x510
    1a50:	d006      	beq.n	1a60 <nrfx_uart_uninit+0x84>
    1a52:	f50c 7ce0 	add.w	ip, ip, #448	; 0x1c0
    1a56:	f04f 43a0 	mov.w	r3, #1342177280	; 0x50000000
    1a5a:	2202      	movs	r2, #2
    1a5c:	f843 202c 	str.w	r2, [r3, ip, lsl #2]
    1a60:	1c7b      	adds	r3, r7, #1
    1a62:	d006      	beq.n	1a72 <nrfx_uart_uninit+0x96>
    1a64:	f507 77e0 	add.w	r7, r7, #448	; 0x1c0
    1a68:	f04f 43a0 	mov.w	r3, #1342177280	; 0x50000000
    1a6c:	2202      	movs	r2, #2
    1a6e:	f843 2027 	str.w	r2, [r3, r7, lsl #2]
    1a72:	1c6a      	adds	r2, r5, #1
    1a74:	d006      	beq.n	1a84 <nrfx_uart_uninit+0xa8>
    1a76:	f505 75e0 	add.w	r5, r5, #448	; 0x1c0
    1a7a:	f04f 43a0 	mov.w	r3, #1342177280	; 0x50000000
    1a7e:	2202      	movs	r2, #2
    1a80:	f843 2025 	str.w	r2, [r3, r5, lsl #2]
    1a84:	1c4b      	adds	r3, r1, #1
    1a86:	d006      	beq.n	1a96 <nrfx_uart_uninit+0xba>
    1a88:	f04f 43a0 	mov.w	r3, #1342177280	; 0x50000000
    1a8c:	f501 71e0 	add.w	r1, r1, #448	; 0x1c0
    1a90:	2202      	movs	r2, #2
    1a92:	f843 2021 	str.w	r2, [r3, r1, lsl #2]
    1a96:	6800      	ldr	r0, [r0, #0]
    1a98:	f7ff fddc 	bl	1654 <nrfx_prs_release>
    1a9c:	232c      	movs	r3, #44	; 0x2c
    1a9e:	fb03 4406 	mla	r4, r3, r6, r4
    1aa2:	2300      	movs	r3, #0
    1aa4:	f884 302a 	strb.w	r3, [r4, #42]	; 0x2a
    1aa8:	6063      	str	r3, [r4, #4]
    1aaa:	bdf8      	pop	{r3, r4, r5, r6, r7, pc}
    1aac:	20000758 	.word	0x20000758
    1ab0:	00020284 	.word	0x00020284
    1ab4:	e000e100 	.word	0xe000e100

00001ab8 <nrfx_uart_tx>:
    1ab8:	e92d 41f0 	stmdb	sp!, {r4, r5, r6, r7, r8, lr}
    1abc:	4c33      	ldr	r4, [pc, #204]	; (1b8c <nrfx_uart_tx+0xd4>)
    1abe:	f890 e004 	ldrb.w	lr, [r0, #4]
    1ac2:	232c      	movs	r3, #44	; 0x2c
    1ac4:	fb03 430e 	mla	r3, r3, lr, r4
    1ac8:	4684      	mov	ip, r0
    1aca:	6958      	ldr	r0, [r3, #20]
    1acc:	b084      	sub	sp, #16
    1ace:	2800      	cmp	r0, #0
    1ad0:	d14e      	bne.n	1b70 <nrfx_uart_tx+0xb8>
    1ad2:	615a      	str	r2, [r3, #20]
    1ad4:	6099      	str	r1, [r3, #8]
    1ad6:	6218      	str	r0, [r3, #32]
    1ad8:	f883 0028 	strb.w	r0, [r3, #40]	; 0x28
    1adc:	f8dc 2000 	ldr.w	r2, [ip]
    1ae0:	f8c2 011c 	str.w	r0, [r2, #284]	; 0x11c
    1ae4:	f8d2 211c 	ldr.w	r2, [r2, #284]	; 0x11c
    1ae8:	9202      	str	r2, [sp, #8]
    1aea:	9a02      	ldr	r2, [sp, #8]
    1aec:	f8dc 2000 	ldr.w	r2, [ip]
    1af0:	2101      	movs	r1, #1
    1af2:	6091      	str	r1, [r2, #8]
    1af4:	f8dc 2000 	ldr.w	r2, [ip]
    1af8:	689d      	ldr	r5, [r3, #8]
    1afa:	f8c2 011c 	str.w	r0, [r2, #284]	; 0x11c
    1afe:	f8d2 111c 	ldr.w	r1, [r2, #284]	; 0x11c
    1b02:	9101      	str	r1, [sp, #4]
    1b04:	9901      	ldr	r1, [sp, #4]
    1b06:	6a19      	ldr	r1, [r3, #32]
    1b08:	5c6e      	ldrb	r6, [r5, r1]
    1b0a:	6a19      	ldr	r1, [r3, #32]
    1b0c:	3101      	adds	r1, #1
    1b0e:	6219      	str	r1, [r3, #32]
    1b10:	f8c2 651c 	str.w	r6, [r2, #1308]	; 0x51c
    1b14:	685a      	ldr	r2, [r3, #4]
    1b16:	b112      	cbz	r2, 1b1e <nrfx_uart_tx+0x66>
    1b18:	b004      	add	sp, #16
    1b1a:	e8bd 81f0 	ldmia.w	sp!, {r4, r5, r6, r7, r8, pc}
    1b1e:	695e      	ldr	r6, [r3, #20]
    1b20:	6a1a      	ldr	r2, [r3, #32]
    1b22:	f8dc 1000 	ldr.w	r1, [ip]
    1b26:	4296      	cmp	r6, r2
    1b28:	d91b      	bls.n	1b62 <nrfx_uart_tx+0xaa>
    1b2a:	4607      	mov	r7, r0
    1b2c:	e002      	b.n	1b34 <nrfx_uart_tx+0x7c>
    1b2e:	f893 2028 	ldrb.w	r2, [r3, #40]	; 0x28
    1b32:	bb0a      	cbnz	r2, 1b78 <nrfx_uart_tx+0xc0>
    1b34:	f8d1 211c 	ldr.w	r2, [r1, #284]	; 0x11c
    1b38:	2a00      	cmp	r2, #0
    1b3a:	d0f8      	beq.n	1b2e <nrfx_uart_tx+0x76>
    1b3c:	f8c1 711c 	str.w	r7, [r1, #284]	; 0x11c
    1b40:	f8d1 211c 	ldr.w	r2, [r1, #284]	; 0x11c
    1b44:	9203      	str	r2, [sp, #12]
    1b46:	9a03      	ldr	r2, [sp, #12]
    1b48:	6a1a      	ldr	r2, [r3, #32]
    1b4a:	f815 8002 	ldrb.w	r8, [r5, r2]
    1b4e:	6a1a      	ldr	r2, [r3, #32]
    1b50:	3201      	adds	r2, #1
    1b52:	621a      	str	r2, [r3, #32]
    1b54:	f8c1 851c 	str.w	r8, [r1, #1308]	; 0x51c
    1b58:	6a1a      	ldr	r2, [r3, #32]
    1b5a:	4296      	cmp	r6, r2
    1b5c:	d8ea      	bhi.n	1b34 <nrfx_uart_tx+0x7c>
    1b5e:	f8dc 1000 	ldr.w	r1, [ip]
    1b62:	f8d1 311c 	ldr.w	r3, [r1, #284]	; 0x11c
    1b66:	2b00      	cmp	r3, #0
    1b68:	d0fb      	beq.n	1b62 <nrfx_uart_tx+0xaa>
    1b6a:	2301      	movs	r3, #1
    1b6c:	60cb      	str	r3, [r1, #12]
    1b6e:	e004      	b.n	1b7a <nrfx_uart_tx+0xc2>
    1b70:	2011      	movs	r0, #17
    1b72:	b004      	add	sp, #16
    1b74:	e8bd 81f0 	ldmia.w	sp!, {r4, r5, r6, r7, r8, pc}
    1b78:	200f      	movs	r0, #15
    1b7a:	232c      	movs	r3, #44	; 0x2c
    1b7c:	fb03 440e 	mla	r4, r3, lr, r4
    1b80:	2300      	movs	r3, #0
    1b82:	6163      	str	r3, [r4, #20]
    1b84:	b004      	add	sp, #16
    1b86:	e8bd 81f0 	ldmia.w	sp!, {r4, r5, r6, r7, r8, pc}
    1b8a:	bf00      	nop
    1b8c:	20000758 	.word	0x20000758

00001b90 <nrfx_uarte_0_irq_handler>:
    1b90:	b510      	push	{r4, lr}
    1b92:	4b5b      	ldr	r3, [pc, #364]	; (1d00 <nrfx_uarte_0_irq_handler+0x170>)
    1b94:	f8d3 2124 	ldr.w	r2, [r3, #292]	; 0x124
    1b98:	b08a      	sub	sp, #40	; 0x28
    1b9a:	2a00      	cmp	r2, #0
    1b9c:	d058      	beq.n	1c50 <nrfx_uarte_0_irq_handler+0xc0>
    1b9e:	2200      	movs	r2, #0
    1ba0:	f8c3 2124 	str.w	r2, [r3, #292]	; 0x124
    1ba4:	f8d3 1124 	ldr.w	r1, [r3, #292]	; 0x124
    1ba8:	9104      	str	r1, [sp, #16]
    1baa:	2202      	movs	r2, #2
    1bac:	f88d 2018 	strb.w	r2, [sp, #24]
    1bb0:	9904      	ldr	r1, [sp, #16]
    1bb2:	4a54      	ldr	r2, [pc, #336]	; (1d04 <nrfx_uarte_0_irq_handler+0x174>)
    1bb4:	f8d3 1480 	ldr.w	r1, [r3, #1152]	; 0x480
    1bb8:	f8c3 1480 	str.w	r1, [r3, #1152]	; 0x480
    1bbc:	ed9f 7b4e 	vldr	d7, [pc, #312]	; 1cf8 <nrfx_uarte_0_irq_handler+0x168>
    1bc0:	9109      	str	r1, [sp, #36]	; 0x24
    1bc2:	f8d3 453c 	ldr.w	r4, [r3, #1340]	; 0x53c
    1bc6:	68d0      	ldr	r0, [r2, #12]
    1bc8:	ed82 7b06 	vstr	d7, [r2, #24]
    1bcc:	e9cd 0407 	strd	r0, r4, [sp, #28]
    1bd0:	e9d2 1300 	ldrd	r1, r3, [r2]
    1bd4:	a806      	add	r0, sp, #24
    1bd6:	4798      	blx	r3
    1bd8:	4b49      	ldr	r3, [pc, #292]	; (1d00 <nrfx_uarte_0_irq_handler+0x170>)
    1bda:	f8d3 2144 	ldr.w	r2, [r3, #324]	; 0x144
    1bde:	b152      	cbz	r2, 1bf6 <nrfx_uarte_0_irq_handler+0x66>
    1be0:	2100      	movs	r1, #0
    1be2:	4a48      	ldr	r2, [pc, #288]	; (1d04 <nrfx_uarte_0_irq_handler+0x174>)
    1be4:	f8c3 1144 	str.w	r1, [r3, #324]	; 0x144
    1be8:	f8d3 0144 	ldr.w	r0, [r3, #324]	; 0x144
    1bec:	6991      	ldr	r1, [r2, #24]
    1bee:	9003      	str	r0, [sp, #12]
    1bf0:	9803      	ldr	r0, [sp, #12]
    1bf2:	2900      	cmp	r1, #0
    1bf4:	d161      	bne.n	1cba <nrfx_uarte_0_irq_handler+0x12a>
    1bf6:	4b42      	ldr	r3, [pc, #264]	; (1d00 <nrfx_uarte_0_irq_handler+0x170>)
    1bf8:	f8d3 2120 	ldr.w	r2, [r3, #288]	; 0x120
    1bfc:	b162      	cbz	r2, 1c18 <nrfx_uarte_0_irq_handler+0x88>
    1bfe:	2000      	movs	r0, #0
    1c00:	f8c3 0120 	str.w	r0, [r3, #288]	; 0x120
    1c04:	f8d3 2120 	ldr.w	r2, [r3, #288]	; 0x120
    1c08:	9202      	str	r2, [sp, #8]
    1c0a:	2101      	movs	r1, #1
    1c0c:	4a3d      	ldr	r2, [pc, #244]	; (1d04 <nrfx_uarte_0_irq_handler+0x174>)
    1c0e:	9c02      	ldr	r4, [sp, #8]
    1c10:	60d9      	str	r1, [r3, #12]
    1c12:	6951      	ldr	r1, [r2, #20]
    1c14:	2900      	cmp	r1, #0
    1c16:	d143      	bne.n	1ca0 <nrfx_uarte_0_irq_handler+0x110>
    1c18:	4b39      	ldr	r3, [pc, #228]	; (1d00 <nrfx_uarte_0_irq_handler+0x170>)
    1c1a:	f8d3 2158 	ldr.w	r2, [r3, #344]	; 0x158
    1c1e:	b1aa      	cbz	r2, 1c4c <nrfx_uarte_0_irq_handler+0xbc>
    1c20:	2000      	movs	r0, #0
    1c22:	f8c3 0158 	str.w	r0, [r3, #344]	; 0x158
    1c26:	f8d3 1158 	ldr.w	r1, [r3, #344]	; 0x158
    1c2a:	4a36      	ldr	r2, [pc, #216]	; (1d04 <nrfx_uarte_0_irq_handler+0x174>)
    1c2c:	9101      	str	r1, [sp, #4]
    1c2e:	9901      	ldr	r1, [sp, #4]
    1c30:	6951      	ldr	r1, [r2, #20]
    1c32:	b159      	cbz	r1, 1c4c <nrfx_uarte_0_irq_handler+0xbc>
    1c34:	f8d3 454c 	ldr.w	r4, [r3, #1356]	; 0x54c
    1c38:	f88d 0018 	strb.w	r0, [sp, #24]
    1c3c:	e9d2 3101 	ldrd	r3, r1, [r2, #4]
    1c40:	6150      	str	r0, [r2, #20]
    1c42:	e9cd 1407 	strd	r1, r4, [sp, #28]
    1c46:	a806      	add	r0, sp, #24
    1c48:	6811      	ldr	r1, [r2, #0]
    1c4a:	4798      	blx	r3
    1c4c:	b00a      	add	sp, #40	; 0x28
    1c4e:	bd10      	pop	{r4, pc}
    1c50:	f8d3 1110 	ldr.w	r1, [r3, #272]	; 0x110
    1c54:	2900      	cmp	r1, #0
    1c56:	d0bf      	beq.n	1bd8 <nrfx_uarte_0_irq_handler+0x48>
    1c58:	f8c3 2110 	str.w	r2, [r3, #272]	; 0x110
    1c5c:	f8d3 1110 	ldr.w	r1, [r3, #272]	; 0x110
    1c60:	4c28      	ldr	r4, [pc, #160]	; (1d04 <nrfx_uarte_0_irq_handler+0x174>)
    1c62:	9105      	str	r1, [sp, #20]
    1c64:	9905      	ldr	r1, [sp, #20]
    1c66:	69a1      	ldr	r1, [r4, #24]
    1c68:	f8d3 053c 	ldr.w	r0, [r3, #1340]	; 0x53c
    1c6c:	4288      	cmp	r0, r1
    1c6e:	d1b3      	bne.n	1bd8 <nrfx_uarte_0_irq_handler+0x48>
    1c70:	69e1      	ldr	r1, [r4, #28]
    1c72:	2900      	cmp	r1, #0
    1c74:	d033      	beq.n	1cde <nrfx_uarte_0_irq_handler+0x14e>
    1c76:	e9c4 1206 	strd	r1, r2, [r4, #24]
    1c7a:	f8d3 2200 	ldr.w	r2, [r3, #512]	; 0x200
    1c7e:	f022 0220 	bic.w	r2, r2, #32
    1c82:	f8c3 2200 	str.w	r2, [r3, #512]	; 0x200
    1c86:	68e2      	ldr	r2, [r4, #12]
    1c88:	9207      	str	r2, [sp, #28]
    1c8a:	2101      	movs	r1, #1
    1c8c:	6922      	ldr	r2, [r4, #16]
    1c8e:	f88d 1018 	strb.w	r1, [sp, #24]
    1c92:	9008      	str	r0, [sp, #32]
    1c94:	6863      	ldr	r3, [r4, #4]
    1c96:	6821      	ldr	r1, [r4, #0]
    1c98:	60e2      	str	r2, [r4, #12]
    1c9a:	a806      	add	r0, sp, #24
    1c9c:	4798      	blx	r3
    1c9e:	e79b      	b.n	1bd8 <nrfx_uarte_0_irq_handler+0x48>
    1ca0:	f8d3 454c 	ldr.w	r4, [r3, #1356]	; 0x54c
    1ca4:	f88d 0018 	strb.w	r0, [sp, #24]
    1ca8:	e9d2 3101 	ldrd	r3, r1, [r2, #4]
    1cac:	6150      	str	r0, [r2, #20]
    1cae:	e9cd 1407 	strd	r1, r4, [sp, #28]
    1cb2:	a806      	add	r0, sp, #24
    1cb4:	6811      	ldr	r1, [r2, #0]
    1cb6:	4798      	blx	r3
    1cb8:	e7ae      	b.n	1c18 <nrfx_uarte_0_irq_handler+0x88>
    1cba:	ed9f 7b0f 	vldr	d7, [pc, #60]	; 1cf8 <nrfx_uarte_0_irq_handler+0x168>
    1cbe:	f8d3 453c 	ldr.w	r4, [r3, #1340]	; 0x53c
    1cc2:	68d0      	ldr	r0, [r2, #12]
    1cc4:	f04f 0c01 	mov.w	ip, #1
    1cc8:	e9cd 0407 	strd	r0, r4, [sp, #28]
    1ccc:	ed82 7b06 	vstr	d7, [r2, #24]
    1cd0:	e9d2 1300 	ldrd	r1, r3, [r2]
    1cd4:	f88d c018 	strb.w	ip, [sp, #24]
    1cd8:	a806      	add	r0, sp, #24
    1cda:	4798      	blx	r3
    1cdc:	e78b      	b.n	1bf6 <nrfx_uarte_0_irq_handler+0x66>
    1cde:	68e2      	ldr	r2, [r4, #12]
    1ce0:	61a1      	str	r1, [r4, #24]
    1ce2:	2301      	movs	r3, #1
    1ce4:	e9cd 2007 	strd	r2, r0, [sp, #28]
    1ce8:	f88d 3018 	strb.w	r3, [sp, #24]
    1cec:	a806      	add	r0, sp, #24
    1cee:	e9d4 1300 	ldrd	r1, r3, [r4]
    1cf2:	4798      	blx	r3
    1cf4:	e770      	b.n	1bd8 <nrfx_uarte_0_irq_handler+0x48>
    1cf6:	bf00      	nop
	...
    1d00:	40002000 	.word	0x40002000
    1d04:	20000788 	.word	0x20000788

00001d08 <nrfx_uarte_init>:
    1d08:	e92d 43f0 	stmdb	sp!, {r4, r5, r6, r7, r8, r9, lr}
    1d0c:	7907      	ldrb	r7, [r0, #4]
    1d0e:	4e6d      	ldr	r6, [pc, #436]	; (1ec4 <nrfx_uarte_init+0x1bc>)
    1d10:	eb07 03c7 	add.w	r3, r7, r7, lsl #3
    1d14:	eb06 0383 	add.w	r3, r6, r3, lsl #2
    1d18:	b087      	sub	sp, #28
    1d1a:	f893 3020 	ldrb.w	r3, [r3, #32]
    1d1e:	2b00      	cmp	r3, #0
    1d20:	f040 80a3 	bne.w	1e6a <nrfx_uarte_init+0x162>
    1d24:	4604      	mov	r4, r0
    1d26:	460d      	mov	r5, r1
    1d28:	6800      	ldr	r0, [r0, #0]
    1d2a:	4967      	ldr	r1, [pc, #412]	; (1ec8 <nrfx_uarte_init+0x1c0>)
    1d2c:	4690      	mov	r8, r2
    1d2e:	f7ff fc73 	bl	1618 <nrfx_prs_acquire>
    1d32:	2800      	cmp	r0, #0
    1d34:	f040 8095 	bne.w	1e62 <nrfx_uarte_init+0x15a>
    1d38:	682b      	ldr	r3, [r5, #0]
    1d3a:	1c59      	adds	r1, r3, #1
    1d3c:	ea4f 09c7 	mov.w	r9, r7, lsl #3
    1d40:	d00c      	beq.n	1d5c <nrfx_uarte_init+0x54>
    1d42:	f04f 41a0 	mov.w	r1, #1342177280	; 0x50000000
    1d46:	2201      	movs	r2, #1
    1d48:	fa02 f303 	lsl.w	r3, r2, r3
    1d4c:	f8c1 3508 	str.w	r3, [r1, #1288]	; 0x508
    1d50:	682b      	ldr	r3, [r5, #0]
    1d52:	f503 73e0 	add.w	r3, r3, #448	; 0x1c0
    1d56:	2203      	movs	r2, #3
    1d58:	f841 2023 	str.w	r2, [r1, r3, lsl #2]
    1d5c:	686b      	ldr	r3, [r5, #4]
    1d5e:	1c5a      	adds	r2, r3, #1
    1d60:	d006      	beq.n	1d70 <nrfx_uarte_init+0x68>
    1d62:	f503 73e0 	add.w	r3, r3, #448	; 0x1c0
    1d66:	f04f 42a0 	mov.w	r2, #1342177280	; 0x50000000
    1d6a:	2100      	movs	r1, #0
    1d6c:	f842 1023 	str.w	r1, [r2, r3, lsl #2]
    1d70:	6823      	ldr	r3, [r4, #0]
    1d72:	69aa      	ldr	r2, [r5, #24]
    1d74:	f8c3 2524 	str.w	r2, [r3, #1316]	; 0x524
    1d78:	7d2b      	ldrb	r3, [r5, #20]
    1d7a:	7d6a      	ldrb	r2, [r5, #21]
    1d7c:	431a      	orrs	r2, r3
    1d7e:	6823      	ldr	r3, [r4, #0]
    1d80:	f8c3 256c 	str.w	r2, [r3, #1388]	; 0x56c
    1d84:	e9d5 3100 	ldrd	r3, r1, [r5]
    1d88:	6822      	ldr	r2, [r4, #0]
    1d8a:	f8c2 350c 	str.w	r3, [r2, #1292]	; 0x50c
    1d8e:	f8c2 1514 	str.w	r1, [r2, #1300]	; 0x514
    1d92:	7d2b      	ldrb	r3, [r5, #20]
    1d94:	2b01      	cmp	r3, #1
    1d96:	d073      	beq.n	1e80 <nrfx_uarte_init+0x178>
    1d98:	eb09 0207 	add.w	r2, r9, r7
    1d9c:	eb06 0382 	add.w	r3, r6, r2, lsl #2
    1da0:	f8c3 8004 	str.w	r8, [r3, #4]
    1da4:	692b      	ldr	r3, [r5, #16]
    1da6:	f846 3022 	str.w	r3, [r6, r2, lsl #2]
    1daa:	f1b8 0f00 	cmp.w	r8, #0
    1dae:	d047      	beq.n	1e40 <nrfx_uarte_init+0x138>
    1db0:	6821      	ldr	r1, [r4, #0]
    1db2:	7f2b      	ldrb	r3, [r5, #28]
    1db4:	2200      	movs	r2, #0
    1db6:	f8c1 2110 	str.w	r2, [r1, #272]	; 0x110
    1dba:	f8d1 1110 	ldr.w	r1, [r1, #272]	; 0x110
    1dbe:	9101      	str	r1, [sp, #4]
    1dc0:	9901      	ldr	r1, [sp, #4]
    1dc2:	6821      	ldr	r1, [r4, #0]
    1dc4:	f8c1 2120 	str.w	r2, [r1, #288]	; 0x120
    1dc8:	f8d1 1120 	ldr.w	r1, [r1, #288]	; 0x120
    1dcc:	9102      	str	r1, [sp, #8]
    1dce:	9902      	ldr	r1, [sp, #8]
    1dd0:	6821      	ldr	r1, [r4, #0]
    1dd2:	f8c1 2124 	str.w	r2, [r1, #292]	; 0x124
    1dd6:	f8d1 1124 	ldr.w	r1, [r1, #292]	; 0x124
    1dda:	9103      	str	r1, [sp, #12]
    1ddc:	9903      	ldr	r1, [sp, #12]
    1dde:	6821      	ldr	r1, [r4, #0]
    1de0:	f8c1 2144 	str.w	r2, [r1, #324]	; 0x144
    1de4:	f8d1 1144 	ldr.w	r1, [r1, #324]	; 0x144
    1de8:	9104      	str	r1, [sp, #16]
    1dea:	9904      	ldr	r1, [sp, #16]
    1dec:	6821      	ldr	r1, [r4, #0]
    1dee:	f8c1 2158 	str.w	r2, [r1, #344]	; 0x158
    1df2:	f8d1 2158 	ldr.w	r2, [r1, #344]	; 0x158
    1df6:	9205      	str	r2, [sp, #20]
    1df8:	9a05      	ldr	r2, [sp, #20]
    1dfa:	6822      	ldr	r2, [r4, #0]
    1dfc:	4933      	ldr	r1, [pc, #204]	; (1ecc <nrfx_uarte_init+0x1c4>)
    1dfe:	f8c2 1304 	str.w	r1, [r2, #772]	; 0x304
    1e02:	6822      	ldr	r2, [r4, #0]
    1e04:	f342 3107 	sbfx	r1, r2, #12, #8
    1e08:	2900      	cmp	r1, #0
    1e0a:	ea4f 3212 	mov.w	r2, r2, lsr #12
    1e0e:	db30      	blt.n	1e72 <nrfx_uarte_init+0x16a>
    1e10:	f101 4160 	add.w	r1, r1, #3758096384	; 0xe0000000
    1e14:	015b      	lsls	r3, r3, #5
    1e16:	f501 4161 	add.w	r1, r1, #57600	; 0xe100
    1e1a:	b2db      	uxtb	r3, r3
    1e1c:	f881 3300 	strb.w	r3, [r1, #768]	; 0x300
    1e20:	6822      	ldr	r2, [r4, #0]
    1e22:	f342 3307 	sbfx	r3, r2, #12, #8
    1e26:	2b00      	cmp	r3, #0
    1e28:	ea4f 3112 	mov.w	r1, r2, lsr #12
    1e2c:	db09      	blt.n	1e42 <nrfx_uarte_init+0x13a>
    1e2e:	4d28      	ldr	r5, [pc, #160]	; (1ed0 <nrfx_uarte_init+0x1c8>)
    1e30:	095b      	lsrs	r3, r3, #5
    1e32:	2201      	movs	r2, #1
    1e34:	f001 011f 	and.w	r1, r1, #31
    1e38:	fa02 f101 	lsl.w	r1, r2, r1
    1e3c:	f845 1023 	str.w	r1, [r5, r3, lsl #2]
    1e40:	6822      	ldr	r2, [r4, #0]
    1e42:	444f      	add	r7, r9
    1e44:	eb06 0687 	add.w	r6, r6, r7, lsl #2
    1e48:	2101      	movs	r1, #1
    1e4a:	2300      	movs	r3, #0
    1e4c:	f886 1020 	strb.w	r1, [r6, #32]
    1e50:	2108      	movs	r1, #8
    1e52:	f8c2 1500 	str.w	r1, [r2, #1280]	; 0x500
    1e56:	e9c6 3306 	strd	r3, r3, [r6, #24]
    1e5a:	6173      	str	r3, [r6, #20]
    1e5c:	b007      	add	sp, #28
    1e5e:	e8bd 83f0 	ldmia.w	sp!, {r4, r5, r6, r7, r8, r9, pc}
    1e62:	2011      	movs	r0, #17
    1e64:	b007      	add	sp, #28
    1e66:	e8bd 83f0 	ldmia.w	sp!, {r4, r5, r6, r7, r8, r9, pc}
    1e6a:	2008      	movs	r0, #8
    1e6c:	b007      	add	sp, #28
    1e6e:	e8bd 83f0 	ldmia.w	sp!, {r4, r5, r6, r7, r8, r9, pc}
    1e72:	4918      	ldr	r1, [pc, #96]	; (1ed4 <nrfx_uarte_init+0x1cc>)
    1e74:	f002 020f 	and.w	r2, r2, #15
    1e78:	015b      	lsls	r3, r3, #5
    1e7a:	b2db      	uxtb	r3, r3
    1e7c:	548b      	strb	r3, [r1, r2]
    1e7e:	e7cf      	b.n	1e20 <nrfx_uarte_init+0x118>
    1e80:	68ab      	ldr	r3, [r5, #8]
    1e82:	1c59      	adds	r1, r3, #1
    1e84:	d006      	beq.n	1e94 <nrfx_uarte_init+0x18c>
    1e86:	f503 73e0 	add.w	r3, r3, #448	; 0x1c0
    1e8a:	f04f 42a0 	mov.w	r2, #1342177280	; 0x50000000
    1e8e:	2100      	movs	r1, #0
    1e90:	f842 1023 	str.w	r1, [r2, r3, lsl #2]
    1e94:	68eb      	ldr	r3, [r5, #12]
    1e96:	1c5a      	adds	r2, r3, #1
    1e98:	d00d      	beq.n	1eb6 <nrfx_uarte_init+0x1ae>
    1e9a:	f04f 41a0 	mov.w	r1, #1342177280	; 0x50000000
    1e9e:	2201      	movs	r2, #1
    1ea0:	fa02 f303 	lsl.w	r3, r2, r3
    1ea4:	f8c1 3508 	str.w	r3, [r1, #1288]	; 0x508
    1ea8:	68eb      	ldr	r3, [r5, #12]
    1eaa:	f503 73e0 	add.w	r3, r3, #448	; 0x1c0
    1eae:	2203      	movs	r2, #3
    1eb0:	f841 2023 	str.w	r2, [r1, r3, lsl #2]
    1eb4:	68eb      	ldr	r3, [r5, #12]
    1eb6:	6822      	ldr	r2, [r4, #0]
    1eb8:	68a9      	ldr	r1, [r5, #8]
    1eba:	f8c2 3508 	str.w	r3, [r2, #1288]	; 0x508
    1ebe:	f8c2 1510 	str.w	r1, [r2, #1296]	; 0x510
    1ec2:	e769      	b.n	1d98 <nrfx_uarte_init+0x90>
    1ec4:	20000788 	.word	0x20000788
    1ec8:	00001b91 	.word	0x00001b91
    1ecc:	00420310 	.word	0x00420310
    1ed0:	e000e100 	.word	0xe000e100
    1ed4:	e000ed14 	.word	0xe000ed14

00001ed8 <nrfx_uarte_uninit>:
    1ed8:	e92d 41f0 	stmdb	sp!, {r4, r5, r6, r7, r8, lr}
    1edc:	7905      	ldrb	r5, [r0, #4]
    1ede:	4c4b      	ldr	r4, [pc, #300]	; (200c <Heap_Size+0xc>)
    1ee0:	eb05 03c5 	add.w	r3, r5, r5, lsl #3
    1ee4:	eb04 0383 	add.w	r3, r4, r3, lsl #2
    1ee8:	4601      	mov	r1, r0
    1eea:	685b      	ldr	r3, [r3, #4]
    1eec:	6800      	ldr	r0, [r0, #0]
    1eee:	b082      	sub	sp, #8
    1ef0:	00ee      	lsls	r6, r5, #3
    1ef2:	b1c3      	cbz	r3, 1f26 <nrfx_uarte_uninit+0x4e>
    1ef4:	4b46      	ldr	r3, [pc, #280]	; (2010 <Heap_Size+0x10>)
    1ef6:	f8c0 3308 	str.w	r3, [r0, #776]	; 0x308
    1efa:	680b      	ldr	r3, [r1, #0]
    1efc:	f343 3207 	sbfx	r2, r3, #12, #8
    1f00:	2a00      	cmp	r2, #0
    1f02:	ea4f 3313 	mov.w	r3, r3, lsr #12
    1f06:	db0e      	blt.n	1f26 <nrfx_uarte_uninit+0x4e>
    1f08:	0952      	lsrs	r2, r2, #5
    1f0a:	f8df c108 	ldr.w	ip, [pc, #264]	; 2014 <Heap_Size+0x14>
    1f0e:	3220      	adds	r2, #32
    1f10:	2701      	movs	r7, #1
    1f12:	f003 031f 	and.w	r3, r3, #31
    1f16:	fa07 f303 	lsl.w	r3, r7, r3
    1f1a:	f84c 3022 	str.w	r3, [ip, r2, lsl #2]
    1f1e:	f3bf 8f4f 	dsb	sy
    1f22:	f3bf 8f6f 	isb	sy
    1f26:	1973      	adds	r3, r6, r5
    1f28:	eb04 0383 	add.w	r3, r4, r3, lsl #2
    1f2c:	699a      	ldr	r2, [r3, #24]
    1f2e:	f8d0 3200 	ldr.w	r3, [r0, #512]	; 0x200
    1f32:	f023 0320 	bic.w	r3, r3, #32
    1f36:	f8c0 3200 	str.w	r3, [r0, #512]	; 0x200
    1f3a:	b142      	cbz	r2, 1f4e <nrfx_uarte_uninit+0x76>
    1f3c:	2300      	movs	r3, #0
    1f3e:	f8c0 3144 	str.w	r3, [r0, #324]	; 0x144
    1f42:	f8d0 3144 	ldr.w	r3, [r0, #324]	; 0x144
    1f46:	9300      	str	r3, [sp, #0]
    1f48:	9b00      	ldr	r3, [sp, #0]
    1f4a:	2301      	movs	r3, #1
    1f4c:	6043      	str	r3, [r0, #4]
    1f4e:	2300      	movs	r3, #0
    1f50:	f8c0 3158 	str.w	r3, [r0, #344]	; 0x158
    1f54:	f8d0 3158 	ldr.w	r3, [r0, #344]	; 0x158
    1f58:	9301      	str	r3, [sp, #4]
    1f5a:	9b01      	ldr	r3, [sp, #4]
    1f5c:	1973      	adds	r3, r6, r5
    1f5e:	2201      	movs	r2, #1
    1f60:	eb04 0383 	add.w	r3, r4, r3, lsl #2
    1f64:	60c2      	str	r2, [r0, #12]
    1f66:	699a      	ldr	r2, [r3, #24]
    1f68:	f8d0 3158 	ldr.w	r3, [r0, #344]	; 0x158
    1f6c:	2b00      	cmp	r3, #0
    1f6e:	d0fb      	beq.n	1f68 <nrfx_uarte_uninit+0x90>
    1f70:	b11a      	cbz	r2, 1f7a <nrfx_uarte_uninit+0xa2>
    1f72:	f8d0 3144 	ldr.w	r3, [r0, #324]	; 0x144
    1f76:	2b00      	cmp	r3, #0
    1f78:	d0f6      	beq.n	1f68 <nrfx_uarte_uninit+0x90>
    1f7a:	2300      	movs	r3, #0
    1f7c:	f8c0 3500 	str.w	r3, [r0, #1280]	; 0x500
    1f80:	680b      	ldr	r3, [r1, #0]
    1f82:	f04f 32ff 	mov.w	r2, #4294967295	; 0xffffffff
    1f86:	f8d3 850c 	ldr.w	r8, [r3, #1292]	; 0x50c
    1f8a:	f8d3 e514 	ldr.w	lr, [r3, #1300]	; 0x514
    1f8e:	f8d3 7508 	ldr.w	r7, [r3, #1288]	; 0x508
    1f92:	f8d3 c510 	ldr.w	ip, [r3, #1296]	; 0x510
    1f96:	f8c3 250c 	str.w	r2, [r3, #1292]	; 0x50c
    1f9a:	f8c3 2514 	str.w	r2, [r3, #1300]	; 0x514
    1f9e:	680b      	ldr	r3, [r1, #0]
    1fa0:	4590      	cmp	r8, r2
    1fa2:	f8c3 2508 	str.w	r2, [r3, #1288]	; 0x508
    1fa6:	f8c3 2510 	str.w	r2, [r3, #1296]	; 0x510
    1faa:	d006      	beq.n	1fba <nrfx_uarte_uninit+0xe2>
    1fac:	f508 78e0 	add.w	r8, r8, #448	; 0x1c0
    1fb0:	f04f 43a0 	mov.w	r3, #1342177280	; 0x50000000
    1fb4:	2202      	movs	r2, #2
    1fb6:	f843 2028 	str.w	r2, [r3, r8, lsl #2]
    1fba:	f1be 3fff 	cmp.w	lr, #4294967295	; 0xffffffff
    1fbe:	d006      	beq.n	1fce <nrfx_uarte_uninit+0xf6>
    1fc0:	f50e 7ee0 	add.w	lr, lr, #448	; 0x1c0
    1fc4:	f04f 43a0 	mov.w	r3, #1342177280	; 0x50000000
    1fc8:	2202      	movs	r2, #2
    1fca:	f843 202e 	str.w	r2, [r3, lr, lsl #2]
    1fce:	f1bc 3fff 	cmp.w	ip, #4294967295	; 0xffffffff
    1fd2:	d006      	beq.n	1fe2 <nrfx_uarte_uninit+0x10a>
    1fd4:	f50c 7ce0 	add.w	ip, ip, #448	; 0x1c0
    1fd8:	f04f 43a0 	mov.w	r3, #1342177280	; 0x50000000
    1fdc:	2202      	movs	r2, #2
    1fde:	f843 202c 	str.w	r2, [r3, ip, lsl #2]
    1fe2:	1c7b      	adds	r3, r7, #1
    1fe4:	d006      	beq.n	1ff4 <nrfx_uarte_uninit+0x11c>
    1fe6:	f507 77e0 	add.w	r7, r7, #448	; 0x1c0
    1fea:	f04f 43a0 	mov.w	r3, #1342177280	; 0x50000000
    1fee:	2202      	movs	r2, #2
    1ff0:	f843 2027 	str.w	r2, [r3, r7, lsl #2]
    1ff4:	f7ff fb2e 	bl	1654 <nrfx_prs_release>
    1ff8:	4435      	add	r5, r6
    1ffa:	eb04 0485 	add.w	r4, r4, r5, lsl #2
    1ffe:	2300      	movs	r3, #0
    2000:	f884 3020 	strb.w	r3, [r4, #32]
    2004:	6063      	str	r3, [r4, #4]
    2006:	b002      	add	sp, #8
    2008:	e8bd 81f0 	ldmia.w	sp!, {r4, r5, r6, r7, r8, pc}
    200c:	20000788 	.word	0x20000788
    2010:	00420310 	.word	0x00420310
    2014:	e000e100 	.word	0xe000e100

00002018 <nrfx_uarte_tx>:
    2018:	f001 4c60 	and.w	ip, r1, #3758096384	; 0xe0000000
    201c:	f1bc 5f00 	cmp.w	ip, #536870912	; 0x20000000
    2020:	d130      	bne.n	2084 <nrfx_uarte_tx+0x6c>
    2022:	b570      	push	{r4, r5, r6, lr}
    2024:	f890 e004 	ldrb.w	lr, [r0, #4]
    2028:	4c26      	ldr	r4, [pc, #152]	; (20c4 <nrfx_uarte_tx+0xac>)
    202a:	eb0e 0cce 	add.w	ip, lr, lr, lsl #3
    202e:	eb04 0c8c 	add.w	ip, r4, ip, lsl #2
    2032:	4603      	mov	r3, r0
    2034:	f8dc 0014 	ldr.w	r0, [ip, #20]
    2038:	b082      	sub	sp, #8
    203a:	ea4f 05ce 	mov.w	r5, lr, lsl #3
    203e:	2800      	cmp	r0, #0
    2040:	d13b      	bne.n	20ba <nrfx_uarte_tx+0xa2>
    2042:	f8cc 2014 	str.w	r2, [ip, #20]
    2046:	f8cc 1008 	str.w	r1, [ip, #8]
    204a:	681a      	ldr	r2, [r3, #0]
    204c:	f8c2 0120 	str.w	r0, [r2, #288]	; 0x120
    2050:	f8d2 2120 	ldr.w	r2, [r2, #288]	; 0x120
    2054:	9201      	str	r2, [sp, #4]
    2056:	9a01      	ldr	r2, [sp, #4]
    2058:	681a      	ldr	r2, [r3, #0]
    205a:	f8c2 0158 	str.w	r0, [r2, #344]	; 0x158
    205e:	f8d2 2158 	ldr.w	r2, [r2, #344]	; 0x158
    2062:	9200      	str	r2, [sp, #0]
    2064:	9a00      	ldr	r2, [sp, #0]
    2066:	681a      	ldr	r2, [r3, #0]
    2068:	f8dc 6014 	ldr.w	r6, [ip, #20]
    206c:	f8c2 1544 	str.w	r1, [r2, #1348]	; 0x544
    2070:	f8c2 6548 	str.w	r6, [r2, #1352]	; 0x548
    2074:	681a      	ldr	r2, [r3, #0]
    2076:	2101      	movs	r1, #1
    2078:	6091      	str	r1, [r2, #8]
    207a:	f8dc 2004 	ldr.w	r2, [ip, #4]
    207e:	b11a      	cbz	r2, 2088 <nrfx_uarte_tx+0x70>
    2080:	b002      	add	sp, #8
    2082:	bd70      	pop	{r4, r5, r6, pc}
    2084:	2010      	movs	r0, #16
    2086:	4770      	bx	lr
    2088:	681a      	ldr	r2, [r3, #0]
    208a:	e000      	b.n	208e <nrfx_uarte_tx+0x76>
    208c:	b9c0      	cbnz	r0, 20c0 <nrfx_uarte_tx+0xa8>
    208e:	f8d2 1120 	ldr.w	r1, [r2, #288]	; 0x120
    2092:	f8d2 0158 	ldr.w	r0, [r2, #344]	; 0x158
    2096:	2900      	cmp	r1, #0
    2098:	d0f8      	beq.n	208c <nrfx_uarte_tx+0x74>
    209a:	b988      	cbnz	r0, 20c0 <nrfx_uarte_tx+0xa8>
    209c:	2101      	movs	r1, #1
    209e:	60d1      	str	r1, [r2, #12]
    20a0:	681b      	ldr	r3, [r3, #0]
    20a2:	f8d3 2158 	ldr.w	r2, [r3, #344]	; 0x158
    20a6:	2a00      	cmp	r2, #0
    20a8:	d0fb      	beq.n	20a2 <nrfx_uarte_tx+0x8a>
    20aa:	eb05 030e 	add.w	r3, r5, lr
    20ae:	eb04 0383 	add.w	r3, r4, r3, lsl #2
    20b2:	2200      	movs	r2, #0
    20b4:	615a      	str	r2, [r3, #20]
    20b6:	b002      	add	sp, #8
    20b8:	bd70      	pop	{r4, r5, r6, pc}
    20ba:	2011      	movs	r0, #17
    20bc:	b002      	add	sp, #8
    20be:	bd70      	pop	{r4, r5, r6, pc}
    20c0:	200f      	movs	r0, #15
    20c2:	e7f2      	b.n	20aa <nrfx_uarte_tx+0x92>
    20c4:	20000788 	.word	0x20000788

000020c8 <twi_rx_start_transfer>:
    20c8:	b4f0      	push	{r4, r5, r6, r7}
    20ca:	b08e      	sub	sp, #56	; 0x38
    20cc:	2300      	movs	r3, #0
    20ce:	4a9e      	ldr	r2, [pc, #632]	; (2348 <twi_rx_start_transfer+0x280>)
    20d0:	9200      	str	r2, [sp, #0]
    20d2:	f8c0 3104 	str.w	r3, [r0, #260]	; 0x104
    20d6:	f8d0 2104 	ldr.w	r2, [r0, #260]	; 0x104
    20da:	9204      	str	r2, [sp, #16]
    20dc:	9a04      	ldr	r2, [sp, #16]
    20de:	f8c0 3124 	str.w	r3, [r0, #292]	; 0x124
    20e2:	f8d0 2124 	ldr.w	r2, [r0, #292]	; 0x124
    20e6:	9203      	str	r2, [sp, #12]
    20e8:	9a03      	ldr	r2, [sp, #12]
    20ea:	f8c0 311c 	str.w	r3, [r0, #284]	; 0x11c
    20ee:	f8d0 211c 	ldr.w	r2, [r0, #284]	; 0x11c
    20f2:	9202      	str	r2, [sp, #8]
    20f4:	9a02      	ldr	r2, [sp, #8]
    20f6:	f8c0 3108 	str.w	r3, [r0, #264]	; 0x108
    20fa:	6a8a      	ldr	r2, [r1, #40]	; 0x28
    20fc:	f8d0 4108 	ldr.w	r4, [r0, #264]	; 0x108
    2100:	9401      	str	r4, [sp, #4]
    2102:	2a01      	cmp	r2, #1
    2104:	9c01      	ldr	r4, [sp, #4]
    2106:	634b      	str	r3, [r1, #52]	; 0x34
    2108:	f881 302f 	strb.w	r3, [r1, #47]	; 0x2f
    210c:	d016      	beq.n	213c <twi_rx_start_transfer+0x74>
    210e:	2301      	movs	r3, #1
    2110:	f8c0 3200 	str.w	r3, [r0, #512]	; 0x200
    2114:	2301      	movs	r3, #1
    2116:	6203      	str	r3, [r0, #32]
    2118:	f891 202d 	ldrb.w	r2, [r1, #45]	; 0x2d
    211c:	2a02      	cmp	r2, #2
    211e:	bf18      	it	ne
    2120:	6003      	strne	r3, [r0, #0]
    2122:	680a      	ldr	r2, [r1, #0]
    2124:	b18a      	cbz	r2, 214a <twi_rx_start_transfer+0x82>
    2126:	f240 2386 	movw	r3, #646	; 0x286
    212a:	608b      	str	r3, [r1, #8]
    212c:	688b      	ldr	r3, [r1, #8]
    212e:	f8c0 3304 	str.w	r3, [r0, #772]	; 0x304
    2132:	2300      	movs	r3, #0
    2134:	4618      	mov	r0, r3
    2136:	b00e      	add	sp, #56	; 0x38
    2138:	bcf0      	pop	{r4, r5, r6, r7}
    213a:	4770      	bx	lr
    213c:	6a0b      	ldr	r3, [r1, #32]
    213e:	065b      	lsls	r3, r3, #25
    2140:	d4e5      	bmi.n	210e <twi_rx_start_transfer+0x46>
    2142:	2302      	movs	r3, #2
    2144:	f8c0 3200 	str.w	r3, [r0, #512]	; 0x200
    2148:	e7e4      	b.n	2114 <twi_rx_start_transfer+0x4c>
    214a:	9b00      	ldr	r3, [sp, #0]
    214c:	2b00      	cmp	r3, #0
    214e:	dd28      	ble.n	21a2 <twi_rx_start_transfer+0xda>
    2150:	2601      	movs	r6, #1
    2152:	f04f 0c02 	mov.w	ip, #2
    2156:	f8d0 3104 	ldr.w	r3, [r0, #260]	; 0x104
    215a:	b133      	cbz	r3, 216a <twi_rx_start_transfer+0xa2>
    215c:	f8c0 2104 	str.w	r2, [r0, #260]	; 0x104
    2160:	f8d0 3104 	ldr.w	r3, [r0, #260]	; 0x104
    2164:	930d      	str	r3, [sp, #52]	; 0x34
    2166:	9b0d      	ldr	r3, [sp, #52]	; 0x34
    2168:	2301      	movs	r3, #1
    216a:	f891 402f 	ldrb.w	r4, [r1, #47]	; 0x2f
    216e:	b334      	cbz	r4, 21be <twi_rx_start_transfer+0xf6>
    2170:	f8c0 2124 	str.w	r2, [r0, #292]	; 0x124
    2174:	f8d0 4124 	ldr.w	r4, [r0, #292]	; 0x124
    2178:	940a      	str	r4, [sp, #40]	; 0x28
    217a:	9c0a      	ldr	r4, [sp, #40]	; 0x28
    217c:	f8c0 211c 	str.w	r2, [r0, #284]	; 0x11c
    2180:	f8d0 411c 	ldr.w	r4, [r0, #284]	; 0x11c
    2184:	940b      	str	r4, [sp, #44]	; 0x2c
    2186:	9c0b      	ldr	r4, [sp, #44]	; 0x2c
    2188:	f8c0 2108 	str.w	r2, [r0, #264]	; 0x108
    218c:	f8d0 4108 	ldr.w	r4, [r0, #264]	; 0x108
    2190:	940c      	str	r4, [sp, #48]	; 0x30
    2192:	9c0c      	ldr	r4, [sp, #48]	; 0x30
    2194:	bb0b      	cbnz	r3, 21da <twi_rx_start_transfer+0x112>
    2196:	9b00      	ldr	r3, [sp, #0]
    2198:	3b01      	subs	r3, #1
    219a:	9300      	str	r3, [sp, #0]
    219c:	9b00      	ldr	r3, [sp, #0]
    219e:	2b00      	cmp	r3, #0
    21a0:	dcd9      	bgt.n	2156 <twi_rx_start_transfer+0x8e>
    21a2:	f891 302f 	ldrb.w	r3, [r1, #47]	; 0x2f
    21a6:	b9f3      	cbnz	r3, 21e6 <twi_rx_start_transfer+0x11e>
    21a8:	9a00      	ldr	r2, [sp, #0]
    21aa:	2a00      	cmp	r2, #0
    21ac:	dcc2      	bgt.n	2134 <twi_rx_start_transfer+0x6c>
    21ae:	2300      	movs	r3, #0
    21b0:	2205      	movs	r2, #5
    21b2:	f8c0 3500 	str.w	r3, [r0, #1280]	; 0x500
    21b6:	2303      	movs	r3, #3
    21b8:	f8c0 2500 	str.w	r2, [r0, #1280]	; 0x500
    21bc:	e7ba      	b.n	2134 <twi_rx_start_transfer+0x6c>
    21be:	f8d0 5124 	ldr.w	r5, [r0, #292]	; 0x124
    21c2:	b355      	cbz	r5, 221a <twi_rx_start_transfer+0x152>
    21c4:	f8c0 4124 	str.w	r4, [r0, #292]	; 0x124
    21c8:	f8d0 4124 	ldr.w	r4, [r0, #292]	; 0x124
    21cc:	9409      	str	r4, [sp, #36]	; 0x24
    21ce:	9c09      	ldr	r4, [sp, #36]	; 0x24
    21d0:	6146      	str	r6, [r0, #20]
    21d2:	f881 602f 	strb.w	r6, [r1, #47]	; 0x2f
    21d6:	2b00      	cmp	r3, #0
    21d8:	d0dd      	beq.n	2196 <twi_rx_start_transfer+0xce>
    21da:	f891 302f 	ldrb.w	r3, [r1, #47]	; 0x2f
    21de:	2200      	movs	r2, #0
    21e0:	f881 202d 	strb.w	r2, [r1, #45]	; 0x2d
    21e4:	b39b      	cbz	r3, 224e <twi_rx_start_transfer+0x186>
    21e6:	f8d0 24c4 	ldr.w	r2, [r0, #1220]	; 0x4c4
    21ea:	f8c0 24c4 	str.w	r2, [r0, #1220]	; 0x4c4
    21ee:	2a00      	cmp	r2, #0
    21f0:	d03f      	beq.n	2272 <twi_rx_start_transfer+0x1aa>
    21f2:	f012 0f01 	tst.w	r2, #1
    21f6:	bf18      	it	ne
    21f8:	f44f 4302 	movne.w	r3, #33280	; 0x8200
    21fc:	f248 2101 	movw	r1, #33281	; 0x8201
    2200:	bf08      	it	eq
    2202:	2303      	moveq	r3, #3
    2204:	f012 0f02 	tst.w	r2, #2
    2208:	bf18      	it	ne
    220a:	460b      	movne	r3, r1
    220c:	f248 2102 	movw	r1, #33282	; 0x8202
    2210:	f012 0f04 	tst.w	r2, #4
    2214:	bf18      	it	ne
    2216:	460b      	movne	r3, r1
    2218:	e7c6      	b.n	21a8 <twi_rx_start_transfer+0xe0>
    221a:	f8d0 411c 	ldr.w	r4, [r0, #284]	; 0x11c
    221e:	b37c      	cbz	r4, 2280 <twi_rx_start_transfer+0x1b8>
    2220:	f8c0 511c 	str.w	r5, [r0, #284]	; 0x11c
    2224:	6b4c      	ldr	r4, [r1, #52]	; 0x34
    2226:	f8d0 711c 	ldr.w	r7, [r0, #284]	; 0x11c
    222a:	9708      	str	r7, [sp, #32]
    222c:	3401      	adds	r4, #1
    222e:	634c      	str	r4, [r1, #52]	; 0x34
    2230:	9f08      	ldr	r7, [sp, #32]
    2232:	f8d0 7124 	ldr.w	r7, [r0, #292]	; 0x124
    2236:	2f00      	cmp	r7, #0
    2238:	d039      	beq.n	22ae <twi_rx_start_transfer+0x1e6>
    223a:	f8c0 5124 	str.w	r5, [r0, #292]	; 0x124
    223e:	f8d0 4124 	ldr.w	r4, [r0, #292]	; 0x124
    2242:	9407      	str	r4, [sp, #28]
    2244:	9c07      	ldr	r4, [sp, #28]
    2246:	6146      	str	r6, [r0, #20]
    2248:	f881 602f 	strb.w	r6, [r1, #47]	; 0x2f
    224c:	e7a2      	b.n	2194 <twi_rx_start_transfer+0xcc>
    224e:	6b4c      	ldr	r4, [r1, #52]	; 0x34
    2250:	6a8a      	ldr	r2, [r1, #40]	; 0x28
    2252:	4294      	cmp	r4, r2
    2254:	d0a8      	beq.n	21a8 <twi_rx_start_transfer+0xe0>
    2256:	2201      	movs	r2, #1
    2258:	2405      	movs	r4, #5
    225a:	f8c0 3500 	str.w	r3, [r0, #1280]	; 0x500
    225e:	f8c0 4500 	str.w	r4, [r0, #1280]	; 0x500
    2262:	f881 202f 	strb.w	r2, [r1, #47]	; 0x2f
    2266:	f8d0 24c4 	ldr.w	r2, [r0, #1220]	; 0x4c4
    226a:	f8c0 24c4 	str.w	r2, [r0, #1220]	; 0x4c4
    226e:	2a00      	cmp	r2, #0
    2270:	d1bf      	bne.n	21f2 <twi_rx_start_transfer+0x12a>
    2272:	9a00      	ldr	r2, [sp, #0]
    2274:	2a00      	cmp	r2, #0
    2276:	f04f 0303 	mov.w	r3, #3
    227a:	f73f af5b 	bgt.w	2134 <twi_rx_start_transfer+0x6c>
    227e:	e796      	b.n	21ae <twi_rx_start_transfer+0xe6>
    2280:	f8d0 5108 	ldr.w	r5, [r0, #264]	; 0x108
    2284:	2d00      	cmp	r5, #0
    2286:	d085      	beq.n	2194 <twi_rx_start_transfer+0xcc>
    2288:	f8c0 4108 	str.w	r4, [r0, #264]	; 0x108
    228c:	f8d0 5108 	ldr.w	r5, [r0, #264]	; 0x108
    2290:	9506      	str	r5, [sp, #24]
    2292:	9d06      	ldr	r5, [sp, #24]
    2294:	f8d0 5124 	ldr.w	r5, [r0, #292]	; 0x124
    2298:	b18d      	cbz	r5, 22be <twi_rx_start_transfer+0x1f6>
    229a:	f8c0 4124 	str.w	r4, [r0, #292]	; 0x124
    229e:	f8d0 4124 	ldr.w	r4, [r0, #292]	; 0x124
    22a2:	9405      	str	r4, [sp, #20]
    22a4:	9c05      	ldr	r4, [sp, #20]
    22a6:	6146      	str	r6, [r0, #20]
    22a8:	f881 602f 	strb.w	r6, [r1, #47]	; 0x2f
    22ac:	e772      	b.n	2194 <twi_rx_start_transfer+0xcc>
    22ae:	6a8d      	ldr	r5, [r1, #40]	; 0x28
    22b0:	42ac      	cmp	r4, r5
    22b2:	d218      	bcs.n	22e6 <twi_rx_start_transfer+0x21e>
    22b4:	6a4d      	ldr	r5, [r1, #36]	; 0x24
    22b6:	5d2c      	ldrb	r4, [r5, r4]
    22b8:	f8c0 451c 	str.w	r4, [r0, #1308]	; 0x51c
    22bc:	e76a      	b.n	2194 <twi_rx_start_transfer+0xcc>
    22be:	6b4c      	ldr	r4, [r1, #52]	; 0x34
    22c0:	6a8d      	ldr	r5, [r1, #40]	; 0x28
    22c2:	42ac      	cmp	r4, r5
    22c4:	f4bf af66 	bcs.w	2194 <twi_rx_start_transfer+0xcc>
    22c8:	6a4d      	ldr	r5, [r1, #36]	; 0x24
    22ca:	f8d0 7518 	ldr.w	r7, [r0, #1304]	; 0x518
    22ce:	552f      	strb	r7, [r5, r4]
    22d0:	6b4c      	ldr	r4, [r1, #52]	; 0x34
    22d2:	6a8f      	ldr	r7, [r1, #40]	; 0x28
    22d4:	3401      	adds	r4, #1
    22d6:	1e7d      	subs	r5, r7, #1
    22d8:	42ac      	cmp	r4, r5
    22da:	634c      	str	r4, [r1, #52]	; 0x34
    22dc:	d01d      	beq.n	231a <twi_rx_start_transfer+0x252>
    22de:	42bc      	cmp	r4, r7
    22e0:	d021      	beq.n	2326 <twi_rx_start_transfer+0x25e>
    22e2:	6206      	str	r6, [r0, #32]
    22e4:	e756      	b.n	2194 <twi_rx_start_transfer+0xcc>
    22e6:	f891 402c 	ldrb.w	r4, [r1, #44]	; 0x2c
    22ea:	b924      	cbnz	r4, 22f6 <twi_rx_start_transfer+0x22e>
    22ec:	6a0c      	ldr	r4, [r1, #32]
    22ee:	0667      	lsls	r7, r4, #25
    22f0:	d409      	bmi.n	2306 <twi_rx_start_transfer+0x23e>
    22f2:	6146      	str	r6, [r0, #20]
    22f4:	e74e      	b.n	2194 <twi_rx_start_transfer+0xcc>
    22f6:	2301      	movs	r3, #1
    22f8:	61c3      	str	r3, [r0, #28]
    22fa:	f891 302f 	ldrb.w	r3, [r1, #47]	; 0x2f
    22fe:	2b00      	cmp	r3, #0
    2300:	f43f af52 	beq.w	21a8 <twi_rx_start_transfer+0xe0>
    2304:	e76f      	b.n	21e6 <twi_rx_start_transfer+0x11e>
    2306:	2201      	movs	r2, #1
    2308:	61c2      	str	r2, [r0, #28]
    230a:	f891 302f 	ldrb.w	r3, [r1, #47]	; 0x2f
    230e:	f881 202d 	strb.w	r2, [r1, #45]	; 0x2d
    2312:	2b00      	cmp	r3, #0
    2314:	f43f af48 	beq.w	21a8 <twi_rx_start_transfer+0xe0>
    2318:	e765      	b.n	21e6 <twi_rx_start_transfer+0x11e>
    231a:	6a0d      	ldr	r5, [r1, #32]
    231c:	066d      	lsls	r5, r5, #25
    231e:	d40f      	bmi.n	2340 <twi_rx_start_transfer+0x278>
    2320:	f8c0 c200 	str.w	ip, [r0, #512]	; 0x200
    2324:	e7dd      	b.n	22e2 <twi_rx_start_transfer+0x21a>
    2326:	6a0c      	ldr	r4, [r1, #32]
    2328:	0664      	lsls	r4, r4, #25
    232a:	f57f af33 	bpl.w	2194 <twi_rx_start_transfer+0xcc>
    232e:	f891 302f 	ldrb.w	r3, [r1, #47]	; 0x2f
    2332:	2202      	movs	r2, #2
    2334:	f881 202d 	strb.w	r2, [r1, #45]	; 0x2d
    2338:	2b00      	cmp	r3, #0
    233a:	f43f af35 	beq.w	21a8 <twi_rx_start_transfer+0xe0>
    233e:	e752      	b.n	21e6 <twi_rx_start_transfer+0x11e>
    2340:	42bc      	cmp	r4, r7
    2342:	d1ce      	bne.n	22e2 <twi_rx_start_transfer+0x21a>
    2344:	e7f3      	b.n	232e <twi_rx_start_transfer+0x266>
    2346:	bf00      	nop
    2348:	000186a0 	.word	0x000186a0

0000234c <twi_tx_start_transfer>:
    234c:	b4f0      	push	{r4, r5, r6, r7}
    234e:	b08e      	sub	sp, #56	; 0x38
    2350:	2300      	movs	r3, #0
    2352:	4aa7      	ldr	r2, [pc, #668]	; (25f0 <twi_tx_start_transfer+0x2a4>)
    2354:	9200      	str	r2, [sp, #0]
    2356:	f8c0 3104 	str.w	r3, [r0, #260]	; 0x104
    235a:	f8d0 2104 	ldr.w	r2, [r0, #260]	; 0x104
    235e:	9204      	str	r2, [sp, #16]
    2360:	9a04      	ldr	r2, [sp, #16]
    2362:	f8c0 3124 	str.w	r3, [r0, #292]	; 0x124
    2366:	f8d0 2124 	ldr.w	r2, [r0, #292]	; 0x124
    236a:	9203      	str	r2, [sp, #12]
    236c:	9a03      	ldr	r2, [sp, #12]
    236e:	f8c0 311c 	str.w	r3, [r0, #284]	; 0x11c
    2372:	f8d0 211c 	ldr.w	r2, [r0, #284]	; 0x11c
    2376:	9202      	str	r2, [sp, #8]
    2378:	9a02      	ldr	r2, [sp, #8]
    237a:	f8c0 3108 	str.w	r3, [r0, #264]	; 0x108
    237e:	f8d0 2108 	ldr.w	r2, [r0, #264]	; 0x108
    2382:	9201      	str	r2, [sp, #4]
    2384:	2201      	movs	r2, #1
    2386:	9c01      	ldr	r4, [sp, #4]
    2388:	f8c0 3200 	str.w	r3, [r0, #512]	; 0x200
    238c:	634b      	str	r3, [r1, #52]	; 0x34
    238e:	f881 302f 	strb.w	r3, [r1, #47]	; 0x2f
    2392:	6202      	str	r2, [r0, #32]
    2394:	f891 302d 	ldrb.w	r3, [r1, #45]	; 0x2d
    2398:	4293      	cmp	r3, r2
    239a:	bf18      	it	ne
    239c:	6082      	strne	r2, [r0, #8]
    239e:	6b4b      	ldr	r3, [r1, #52]	; 0x34
    23a0:	6a8a      	ldr	r2, [r1, #40]	; 0x28
    23a2:	4293      	cmp	r3, r2
    23a4:	d210      	bcs.n	23c8 <twi_tx_start_transfer+0x7c>
    23a6:	6a4a      	ldr	r2, [r1, #36]	; 0x24
    23a8:	5cd3      	ldrb	r3, [r2, r3]
    23aa:	f8c0 351c 	str.w	r3, [r0, #1308]	; 0x51c
    23ae:	680a      	ldr	r2, [r1, #0]
    23b0:	b1ea      	cbz	r2, 23ee <twi_tx_start_transfer+0xa2>
    23b2:	f240 2386 	movw	r3, #646	; 0x286
    23b6:	608b      	str	r3, [r1, #8]
    23b8:	688b      	ldr	r3, [r1, #8]
    23ba:	f8c0 3304 	str.w	r3, [r0, #772]	; 0x304
    23be:	2300      	movs	r3, #0
    23c0:	4618      	mov	r0, r3
    23c2:	b00e      	add	sp, #56	; 0x38
    23c4:	bcf0      	pop	{r4, r5, r6, r7}
    23c6:	4770      	bx	lr
    23c8:	f891 302c 	ldrb.w	r3, [r1, #44]	; 0x2c
    23cc:	2b00      	cmp	r3, #0
    23ce:	f040 80c0 	bne.w	2552 <twi_tx_start_transfer+0x206>
    23d2:	6a0b      	ldr	r3, [r1, #32]
    23d4:	f013 0f40 	tst.w	r3, #64	; 0x40
    23d8:	f04f 0301 	mov.w	r3, #1
    23dc:	bf14      	ite	ne
    23de:	61c3      	strne	r3, [r0, #28]
    23e0:	6143      	streq	r3, [r0, #20]
    23e2:	680a      	ldr	r2, [r1, #0]
    23e4:	bf18      	it	ne
    23e6:	f881 302d 	strbne.w	r3, [r1, #45]	; 0x2d
    23ea:	2a00      	cmp	r2, #0
    23ec:	d1e1      	bne.n	23b2 <twi_tx_start_transfer+0x66>
    23ee:	9b00      	ldr	r3, [sp, #0]
    23f0:	2b00      	cmp	r3, #0
    23f2:	dd28      	ble.n	2446 <twi_tx_start_transfer+0xfa>
    23f4:	2601      	movs	r6, #1
    23f6:	f04f 0c02 	mov.w	ip, #2
    23fa:	f8d0 3104 	ldr.w	r3, [r0, #260]	; 0x104
    23fe:	b133      	cbz	r3, 240e <twi_tx_start_transfer+0xc2>
    2400:	f8c0 2104 	str.w	r2, [r0, #260]	; 0x104
    2404:	f8d0 3104 	ldr.w	r3, [r0, #260]	; 0x104
    2408:	930d      	str	r3, [sp, #52]	; 0x34
    240a:	9b0d      	ldr	r3, [sp, #52]	; 0x34
    240c:	2301      	movs	r3, #1
    240e:	f891 402f 	ldrb.w	r4, [r1, #47]	; 0x2f
    2412:	b334      	cbz	r4, 2462 <twi_tx_start_transfer+0x116>
    2414:	f8c0 2124 	str.w	r2, [r0, #292]	; 0x124
    2418:	f8d0 4124 	ldr.w	r4, [r0, #292]	; 0x124
    241c:	940a      	str	r4, [sp, #40]	; 0x28
    241e:	9c0a      	ldr	r4, [sp, #40]	; 0x28
    2420:	f8c0 211c 	str.w	r2, [r0, #284]	; 0x11c
    2424:	f8d0 411c 	ldr.w	r4, [r0, #284]	; 0x11c
    2428:	940b      	str	r4, [sp, #44]	; 0x2c
    242a:	9c0b      	ldr	r4, [sp, #44]	; 0x2c
    242c:	f8c0 2108 	str.w	r2, [r0, #264]	; 0x108
    2430:	f8d0 4108 	ldr.w	r4, [r0, #264]	; 0x108
    2434:	940c      	str	r4, [sp, #48]	; 0x30
    2436:	9c0c      	ldr	r4, [sp, #48]	; 0x30
    2438:	bb0b      	cbnz	r3, 247e <twi_tx_start_transfer+0x132>
    243a:	9b00      	ldr	r3, [sp, #0]
    243c:	3b01      	subs	r3, #1
    243e:	9300      	str	r3, [sp, #0]
    2440:	9b00      	ldr	r3, [sp, #0]
    2442:	2b00      	cmp	r3, #0
    2444:	dcd9      	bgt.n	23fa <twi_tx_start_transfer+0xae>
    2446:	f891 302f 	ldrb.w	r3, [r1, #47]	; 0x2f
    244a:	b9f3      	cbnz	r3, 248a <twi_tx_start_transfer+0x13e>
    244c:	9a00      	ldr	r2, [sp, #0]
    244e:	2a00      	cmp	r2, #0
    2450:	dcb6      	bgt.n	23c0 <twi_tx_start_transfer+0x74>
    2452:	2300      	movs	r3, #0
    2454:	2205      	movs	r2, #5
    2456:	f8c0 3500 	str.w	r3, [r0, #1280]	; 0x500
    245a:	2303      	movs	r3, #3
    245c:	f8c0 2500 	str.w	r2, [r0, #1280]	; 0x500
    2460:	e7ae      	b.n	23c0 <twi_tx_start_transfer+0x74>
    2462:	f8d0 5124 	ldr.w	r5, [r0, #292]	; 0x124
    2466:	b355      	cbz	r5, 24be <twi_tx_start_transfer+0x172>
    2468:	f8c0 4124 	str.w	r4, [r0, #292]	; 0x124
    246c:	f8d0 4124 	ldr.w	r4, [r0, #292]	; 0x124
    2470:	9409      	str	r4, [sp, #36]	; 0x24
    2472:	9c09      	ldr	r4, [sp, #36]	; 0x24
    2474:	6146      	str	r6, [r0, #20]
    2476:	f881 602f 	strb.w	r6, [r1, #47]	; 0x2f
    247a:	2b00      	cmp	r3, #0
    247c:	d0dd      	beq.n	243a <twi_tx_start_transfer+0xee>
    247e:	f891 302f 	ldrb.w	r3, [r1, #47]	; 0x2f
    2482:	2200      	movs	r2, #0
    2484:	f881 202d 	strb.w	r2, [r1, #45]	; 0x2d
    2488:	b39b      	cbz	r3, 24f2 <twi_tx_start_transfer+0x1a6>
    248a:	f8d0 24c4 	ldr.w	r2, [r0, #1220]	; 0x4c4
    248e:	f8c0 24c4 	str.w	r2, [r0, #1220]	; 0x4c4
    2492:	2a00      	cmp	r2, #0
    2494:	d03f      	beq.n	2516 <twi_tx_start_transfer+0x1ca>
    2496:	f012 0f01 	tst.w	r2, #1
    249a:	bf18      	it	ne
    249c:	f44f 4302 	movne.w	r3, #33280	; 0x8200
    24a0:	f248 2101 	movw	r1, #33281	; 0x8201
    24a4:	bf08      	it	eq
    24a6:	2303      	moveq	r3, #3
    24a8:	f012 0f02 	tst.w	r2, #2
    24ac:	bf18      	it	ne
    24ae:	460b      	movne	r3, r1
    24b0:	f248 2102 	movw	r1, #33282	; 0x8202
    24b4:	f012 0f04 	tst.w	r2, #4
    24b8:	bf18      	it	ne
    24ba:	460b      	movne	r3, r1
    24bc:	e7c6      	b.n	244c <twi_tx_start_transfer+0x100>
    24be:	f8d0 411c 	ldr.w	r4, [r0, #284]	; 0x11c
    24c2:	b37c      	cbz	r4, 2524 <twi_tx_start_transfer+0x1d8>
    24c4:	f8c0 511c 	str.w	r5, [r0, #284]	; 0x11c
    24c8:	6b4c      	ldr	r4, [r1, #52]	; 0x34
    24ca:	f8d0 711c 	ldr.w	r7, [r0, #284]	; 0x11c
    24ce:	9708      	str	r7, [sp, #32]
    24d0:	3401      	adds	r4, #1
    24d2:	634c      	str	r4, [r1, #52]	; 0x34
    24d4:	9f08      	ldr	r7, [sp, #32]
    24d6:	f8d0 7124 	ldr.w	r7, [r0, #292]	; 0x124
    24da:	2f00      	cmp	r7, #0
    24dc:	d03c      	beq.n	2558 <twi_tx_start_transfer+0x20c>
    24de:	f8c0 5124 	str.w	r5, [r0, #292]	; 0x124
    24e2:	f8d0 4124 	ldr.w	r4, [r0, #292]	; 0x124
    24e6:	9407      	str	r4, [sp, #28]
    24e8:	9c07      	ldr	r4, [sp, #28]
    24ea:	6146      	str	r6, [r0, #20]
    24ec:	f881 602f 	strb.w	r6, [r1, #47]	; 0x2f
    24f0:	e7a2      	b.n	2438 <twi_tx_start_transfer+0xec>
    24f2:	6b4c      	ldr	r4, [r1, #52]	; 0x34
    24f4:	6a8a      	ldr	r2, [r1, #40]	; 0x28
    24f6:	4294      	cmp	r4, r2
    24f8:	d0a8      	beq.n	244c <twi_tx_start_transfer+0x100>
    24fa:	2201      	movs	r2, #1
    24fc:	2405      	movs	r4, #5
    24fe:	f8c0 3500 	str.w	r3, [r0, #1280]	; 0x500
    2502:	f8c0 4500 	str.w	r4, [r0, #1280]	; 0x500
    2506:	f881 202f 	strb.w	r2, [r1, #47]	; 0x2f
    250a:	f8d0 24c4 	ldr.w	r2, [r0, #1220]	; 0x4c4
    250e:	f8c0 24c4 	str.w	r2, [r0, #1220]	; 0x4c4
    2512:	2a00      	cmp	r2, #0
    2514:	d1bf      	bne.n	2496 <twi_tx_start_transfer+0x14a>
    2516:	9a00      	ldr	r2, [sp, #0]
    2518:	2a00      	cmp	r2, #0
    251a:	f04f 0303 	mov.w	r3, #3
    251e:	f73f af4f 	bgt.w	23c0 <twi_tx_start_transfer+0x74>
    2522:	e796      	b.n	2452 <twi_tx_start_transfer+0x106>
    2524:	f8d0 5108 	ldr.w	r5, [r0, #264]	; 0x108
    2528:	2d00      	cmp	r5, #0
    252a:	d085      	beq.n	2438 <twi_tx_start_transfer+0xec>
    252c:	f8c0 4108 	str.w	r4, [r0, #264]	; 0x108
    2530:	f8d0 5108 	ldr.w	r5, [r0, #264]	; 0x108
    2534:	9506      	str	r5, [sp, #24]
    2536:	9d06      	ldr	r5, [sp, #24]
    2538:	f8d0 5124 	ldr.w	r5, [r0, #292]	; 0x124
    253c:	b1a5      	cbz	r5, 2568 <twi_tx_start_transfer+0x21c>
    253e:	f8c0 4124 	str.w	r4, [r0, #292]	; 0x124
    2542:	f8d0 4124 	ldr.w	r4, [r0, #292]	; 0x124
    2546:	9405      	str	r4, [sp, #20]
    2548:	9c05      	ldr	r4, [sp, #20]
    254a:	6146      	str	r6, [r0, #20]
    254c:	f881 602f 	strb.w	r6, [r1, #47]	; 0x2f
    2550:	e772      	b.n	2438 <twi_tx_start_transfer+0xec>
    2552:	2301      	movs	r3, #1
    2554:	61c3      	str	r3, [r0, #28]
    2556:	e72a      	b.n	23ae <twi_tx_start_transfer+0x62>
    2558:	6a8d      	ldr	r5, [r1, #40]	; 0x28
    255a:	42ac      	cmp	r4, r5
    255c:	d218      	bcs.n	2590 <twi_tx_start_transfer+0x244>
    255e:	6a4d      	ldr	r5, [r1, #36]	; 0x24
    2560:	5d2c      	ldrb	r4, [r5, r4]
    2562:	f8c0 451c 	str.w	r4, [r0, #1308]	; 0x51c
    2566:	e767      	b.n	2438 <twi_tx_start_transfer+0xec>
    2568:	6b4c      	ldr	r4, [r1, #52]	; 0x34
    256a:	6a8d      	ldr	r5, [r1, #40]	; 0x28
    256c:	42ac      	cmp	r4, r5
    256e:	f4bf af63 	bcs.w	2438 <twi_tx_start_transfer+0xec>
    2572:	6a4d      	ldr	r5, [r1, #36]	; 0x24
    2574:	f8d0 7518 	ldr.w	r7, [r0, #1304]	; 0x518
    2578:	552f      	strb	r7, [r5, r4]
    257a:	6b4c      	ldr	r4, [r1, #52]	; 0x34
    257c:	6a8f      	ldr	r7, [r1, #40]	; 0x28
    257e:	3401      	adds	r4, #1
    2580:	1e7d      	subs	r5, r7, #1
    2582:	42ac      	cmp	r4, r5
    2584:	634c      	str	r4, [r1, #52]	; 0x34
    2586:	d01d      	beq.n	25c4 <twi_tx_start_transfer+0x278>
    2588:	42bc      	cmp	r4, r7
    258a:	d021      	beq.n	25d0 <twi_tx_start_transfer+0x284>
    258c:	6206      	str	r6, [r0, #32]
    258e:	e753      	b.n	2438 <twi_tx_start_transfer+0xec>
    2590:	f891 402c 	ldrb.w	r4, [r1, #44]	; 0x2c
    2594:	b924      	cbnz	r4, 25a0 <twi_tx_start_transfer+0x254>
    2596:	6a0c      	ldr	r4, [r1, #32]
    2598:	0667      	lsls	r7, r4, #25
    259a:	d409      	bmi.n	25b0 <twi_tx_start_transfer+0x264>
    259c:	6146      	str	r6, [r0, #20]
    259e:	e74b      	b.n	2438 <twi_tx_start_transfer+0xec>
    25a0:	2301      	movs	r3, #1
    25a2:	61c3      	str	r3, [r0, #28]
    25a4:	f891 302f 	ldrb.w	r3, [r1, #47]	; 0x2f
    25a8:	2b00      	cmp	r3, #0
    25aa:	f43f af4f 	beq.w	244c <twi_tx_start_transfer+0x100>
    25ae:	e76c      	b.n	248a <twi_tx_start_transfer+0x13e>
    25b0:	2201      	movs	r2, #1
    25b2:	61c2      	str	r2, [r0, #28]
    25b4:	f891 302f 	ldrb.w	r3, [r1, #47]	; 0x2f
    25b8:	f881 202d 	strb.w	r2, [r1, #45]	; 0x2d
    25bc:	2b00      	cmp	r3, #0
    25be:	f43f af45 	beq.w	244c <twi_tx_start_transfer+0x100>
    25c2:	e762      	b.n	248a <twi_tx_start_transfer+0x13e>
    25c4:	6a0d      	ldr	r5, [r1, #32]
    25c6:	066d      	lsls	r5, r5, #25
    25c8:	d40f      	bmi.n	25ea <twi_tx_start_transfer+0x29e>
    25ca:	f8c0 c200 	str.w	ip, [r0, #512]	; 0x200
    25ce:	e7dd      	b.n	258c <twi_tx_start_transfer+0x240>
    25d0:	6a0c      	ldr	r4, [r1, #32]
    25d2:	0664      	lsls	r4, r4, #25
    25d4:	f57f af30 	bpl.w	2438 <twi_tx_start_transfer+0xec>
    25d8:	f891 302f 	ldrb.w	r3, [r1, #47]	; 0x2f
    25dc:	2202      	movs	r2, #2
    25de:	f881 202d 	strb.w	r2, [r1, #45]	; 0x2d
    25e2:	2b00      	cmp	r3, #0
    25e4:	f43f af32 	beq.w	244c <twi_tx_start_transfer+0x100>
    25e8:	e74f      	b.n	248a <twi_tx_start_transfer+0x13e>
    25ea:	42bc      	cmp	r4, r7
    25ec:	d1ce      	bne.n	258c <twi_tx_start_transfer+0x240>
    25ee:	e7f3      	b.n	25d8 <twi_tx_start_transfer+0x28c>
    25f0:	000186a0 	.word	0x000186a0

000025f4 <SPIM0_SPIS0_TWIM0_TWIS0_SPI0_TWI0_IRQHandler>:
    25f4:	b570      	push	{r4, r5, r6, lr}
    25f6:	4b90      	ldr	r3, [pc, #576]	; (2838 <SPIM0_SPIS0_TWIM0_TWIS0_SPI0_TWI0_IRQHandler+0x244>)
    25f8:	f8d3 2104 	ldr.w	r2, [r3, #260]	; 0x104
    25fc:	b090      	sub	sp, #64	; 0x40
    25fe:	b13a      	cbz	r2, 2610 <SPIM0_SPIS0_TWIM0_TWIS0_SPI0_TWI0_IRQHandler+0x1c>
    2600:	2200      	movs	r2, #0
    2602:	f8c3 2104 	str.w	r2, [r3, #260]	; 0x104
    2606:	f8d3 3104 	ldr.w	r3, [r3, #260]	; 0x104
    260a:	9309      	str	r3, [sp, #36]	; 0x24
    260c:	9b09      	ldr	r3, [sp, #36]	; 0x24
    260e:	2201      	movs	r2, #1
    2610:	4c8a      	ldr	r4, [pc, #552]	; (283c <SPIM0_SPIS0_TWIM0_TWIS0_SPI0_TWI0_IRQHandler+0x248>)
    2612:	4b89      	ldr	r3, [pc, #548]	; (2838 <SPIM0_SPIS0_TWIM0_TWIS0_SPI0_TWI0_IRQHandler+0x244>)
    2614:	f894 102f 	ldrb.w	r1, [r4, #47]	; 0x2f
    2618:	b1a9      	cbz	r1, 2646 <SPIM0_SPIS0_TWIM0_TWIS0_SPI0_TWI0_IRQHandler+0x52>
    261a:	2100      	movs	r1, #0
    261c:	f8c3 1124 	str.w	r1, [r3, #292]	; 0x124
    2620:	f8d3 0124 	ldr.w	r0, [r3, #292]	; 0x124
    2624:	9006      	str	r0, [sp, #24]
    2626:	9806      	ldr	r0, [sp, #24]
    2628:	f8c3 111c 	str.w	r1, [r3, #284]	; 0x11c
    262c:	f8d3 011c 	ldr.w	r0, [r3, #284]	; 0x11c
    2630:	9007      	str	r0, [sp, #28]
    2632:	9807      	ldr	r0, [sp, #28]
    2634:	f8c3 1108 	str.w	r1, [r3, #264]	; 0x108
    2638:	f8d3 3108 	ldr.w	r3, [r3, #264]	; 0x108
    263c:	9308      	str	r3, [sp, #32]
    263e:	9b08      	ldr	r3, [sp, #32]
    2640:	b98a      	cbnz	r2, 2666 <SPIM0_SPIS0_TWIM0_TWIS0_SPI0_TWI0_IRQHandler+0x72>
    2642:	b010      	add	sp, #64	; 0x40
    2644:	bd70      	pop	{r4, r5, r6, pc}
    2646:	f8d3 0124 	ldr.w	r0, [r3, #292]	; 0x124
    264a:	2800      	cmp	r0, #0
    264c:	d03c      	beq.n	26c8 <SPIM0_SPIS0_TWIM0_TWIS0_SPI0_TWI0_IRQHandler+0xd4>
    264e:	f8c3 1124 	str.w	r1, [r3, #292]	; 0x124
    2652:	f8d3 1124 	ldr.w	r1, [r3, #292]	; 0x124
    2656:	9105      	str	r1, [sp, #20]
    2658:	2101      	movs	r1, #1
    265a:	9805      	ldr	r0, [sp, #20]
    265c:	f884 102f 	strb.w	r1, [r4, #47]	; 0x2f
    2660:	6159      	str	r1, [r3, #20]
    2662:	2a00      	cmp	r2, #0
    2664:	d0ed      	beq.n	2642 <SPIM0_SPIS0_TWIM0_TWIS0_SPI0_TWI0_IRQHandler+0x4e>
    2666:	f894 302f 	ldrb.w	r3, [r4, #47]	; 0x2f
    266a:	2200      	movs	r2, #0
    266c:	f884 202d 	strb.w	r2, [r4, #45]	; 0x2d
    2670:	b963      	cbnz	r3, 268c <SPIM0_SPIS0_TWIM0_TWIS0_SPI0_TWI0_IRQHandler+0x98>
    2672:	6b61      	ldr	r1, [r4, #52]	; 0x34
    2674:	6aa2      	ldr	r2, [r4, #40]	; 0x28
    2676:	4291      	cmp	r1, r2
    2678:	d060      	beq.n	273c <SPIM0_SPIS0_TWIM0_TWIS0_SPI0_TWI0_IRQHandler+0x148>
    267a:	4a6f      	ldr	r2, [pc, #444]	; (2838 <SPIM0_SPIS0_TWIM0_TWIS0_SPI0_TWI0_IRQHandler+0x244>)
    267c:	2105      	movs	r1, #5
    267e:	2001      	movs	r0, #1
    2680:	f8c2 3500 	str.w	r3, [r2, #1280]	; 0x500
    2684:	f884 002f 	strb.w	r0, [r4, #47]	; 0x2f
    2688:	f8c2 1500 	str.w	r1, [r2, #1280]	; 0x500
    268c:	4d6c      	ldr	r5, [pc, #432]	; (2840 <SPIM0_SPIS0_TWIM0_TWIS0_SPI0_TWI0_IRQHandler+0x24c>)
    268e:	4e6a      	ldr	r6, [pc, #424]	; (2838 <SPIM0_SPIS0_TWIM0_TWIS0_SPI0_TWI0_IRQHandler+0x244>)
    2690:	cd0f      	ldmia	r5!, {r0, r1, r2, r3}
    2692:	f10d 0c2c 	add.w	ip, sp, #44	; 0x2c
    2696:	e8ac 000f 	stmia.w	ip!, {r0, r1, r2, r3}
    269a:	682b      	ldr	r3, [r5, #0]
    269c:	f8cc 3000 	str.w	r3, [ip]
    26a0:	f8d6 34c4 	ldr.w	r3, [r6, #1220]	; 0x4c4
    26a4:	f8c6 34c4 	str.w	r3, [r6, #1220]	; 0x4c4
    26a8:	079a      	lsls	r2, r3, #30
    26aa:	d428      	bmi.n	26fe <SPIM0_SPIS0_TWIM0_TWIS0_SPI0_TWI0_IRQHandler+0x10a>
    26ac:	0758      	lsls	r0, r3, #29
    26ae:	d573      	bpl.n	2798 <SPIM0_SPIS0_TWIM0_TWIS0_SPI0_TWI0_IRQHandler+0x1a4>
    26b0:	2302      	movs	r3, #2
    26b2:	f88d 3028 	strb.w	r3, [sp, #40]	; 0x28
    26b6:	2300      	movs	r3, #0
    26b8:	f884 3030 	strb.w	r3, [r4, #48]	; 0x30
    26bc:	e9d4 3100 	ldrd	r3, r1, [r4]
    26c0:	a80a      	add	r0, sp, #40	; 0x28
    26c2:	4798      	blx	r3
    26c4:	b010      	add	sp, #64	; 0x40
    26c6:	bd70      	pop	{r4, r5, r6, pc}
    26c8:	f8d3 111c 	ldr.w	r1, [r3, #284]	; 0x11c
    26cc:	b1d9      	cbz	r1, 2706 <SPIM0_SPIS0_TWIM0_TWIS0_SPI0_TWI0_IRQHandler+0x112>
    26ce:	f8c3 011c 	str.w	r0, [r3, #284]	; 0x11c
    26d2:	f8d3 111c 	ldr.w	r1, [r3, #284]	; 0x11c
    26d6:	9104      	str	r1, [sp, #16]
    26d8:	6b61      	ldr	r1, [r4, #52]	; 0x34
    26da:	9d04      	ldr	r5, [sp, #16]
    26dc:	3101      	adds	r1, #1
    26de:	6361      	str	r1, [r4, #52]	; 0x34
    26e0:	f8d3 5124 	ldr.w	r5, [r3, #292]	; 0x124
    26e4:	2d00      	cmp	r5, #0
    26e6:	d074      	beq.n	27d2 <SPIM0_SPIS0_TWIM0_TWIS0_SPI0_TWI0_IRQHandler+0x1de>
    26e8:	f8c3 0124 	str.w	r0, [r3, #292]	; 0x124
    26ec:	f8d3 1124 	ldr.w	r1, [r3, #292]	; 0x124
    26f0:	9103      	str	r1, [sp, #12]
    26f2:	2101      	movs	r1, #1
    26f4:	9803      	ldr	r0, [sp, #12]
    26f6:	f884 102f 	strb.w	r1, [r4, #47]	; 0x2f
    26fa:	6159      	str	r1, [r3, #20]
    26fc:	e7a0      	b.n	2640 <SPIM0_SPIS0_TWIM0_TWIS0_SPI0_TWI0_IRQHandler+0x4c>
    26fe:	2301      	movs	r3, #1
    2700:	f88d 3028 	strb.w	r3, [sp, #40]	; 0x28
    2704:	e7d7      	b.n	26b6 <SPIM0_SPIS0_TWIM0_TWIS0_SPI0_TWI0_IRQHandler+0xc2>
    2706:	f8d3 0108 	ldr.w	r0, [r3, #264]	; 0x108
    270a:	2800      	cmp	r0, #0
    270c:	d098      	beq.n	2640 <SPIM0_SPIS0_TWIM0_TWIS0_SPI0_TWI0_IRQHandler+0x4c>
    270e:	f8c3 1108 	str.w	r1, [r3, #264]	; 0x108
    2712:	f8d3 0108 	ldr.w	r0, [r3, #264]	; 0x108
    2716:	9002      	str	r0, [sp, #8]
    2718:	9802      	ldr	r0, [sp, #8]
    271a:	f8d3 0124 	ldr.w	r0, [r3, #292]	; 0x124
    271e:	2800      	cmp	r0, #0
    2720:	d041      	beq.n	27a6 <SPIM0_SPIS0_TWIM0_TWIS0_SPI0_TWI0_IRQHandler+0x1b2>
    2722:	f8c3 1124 	str.w	r1, [r3, #292]	; 0x124
    2726:	f8d3 1124 	ldr.w	r1, [r3, #292]	; 0x124
    272a:	9101      	str	r1, [sp, #4]
    272c:	2101      	movs	r1, #1
    272e:	9801      	ldr	r0, [sp, #4]
    2730:	f884 102f 	strb.w	r1, [r4, #47]	; 0x2f
    2734:	6159      	str	r1, [r3, #20]
    2736:	e783      	b.n	2640 <SPIM0_SPIS0_TWIM0_TWIS0_SPI0_TWI0_IRQHandler+0x4c>
    2738:	2201      	movs	r2, #1
    273a:	61da      	str	r2, [r3, #28]
    273c:	7b23      	ldrb	r3, [r4, #12]
    273e:	1e9a      	subs	r2, r3, #2
    2740:	2a01      	cmp	r2, #1
    2742:	d90f      	bls.n	2764 <SPIM0_SPIS0_TWIM0_TWIS0_SPI0_TWI0_IRQHandler+0x170>
    2744:	4e3e      	ldr	r6, [pc, #248]	; (2840 <SPIM0_SPIS0_TWIM0_TWIS0_SPI0_TWI0_IRQHandler+0x24c>)
    2746:	2300      	movs	r3, #0
    2748:	f88d 3028 	strb.w	r3, [sp, #40]	; 0x28
    274c:	f884 3030 	strb.w	r3, [r4, #48]	; 0x30
    2750:	ce0f      	ldmia	r6!, {r0, r1, r2, r3}
    2752:	ad0b      	add	r5, sp, #44	; 0x2c
    2754:	c50f      	stmia	r5!, {r0, r1, r2, r3}
    2756:	6833      	ldr	r3, [r6, #0]
    2758:	602b      	str	r3, [r5, #0]
    275a:	6a23      	ldr	r3, [r4, #32]
    275c:	075b      	lsls	r3, r3, #29
    275e:	d5ad      	bpl.n	26bc <SPIM0_SPIS0_TWIM0_TWIS0_SPI0_TWI0_IRQHandler+0xc8>
    2760:	b010      	add	sp, #64	; 0x40
    2762:	bd70      	pop	{r4, r5, r6, pc}
    2764:	6a61      	ldr	r1, [r4, #36]	; 0x24
    2766:	69a2      	ldr	r2, [r4, #24]
    2768:	4291      	cmp	r1, r2
    276a:	d1eb      	bne.n	2744 <SPIM0_SPIS0_TWIM0_TWIS0_SPI0_TWI0_IRQHandler+0x150>
    276c:	e9d4 0207 	ldrd	r0, r2, [r4, #28]
    2770:	6961      	ldr	r1, [r4, #20]
    2772:	f3c2 1240 	ubfx	r2, r2, #5, #1
    2776:	e9c4 0109 	strd	r0, r1, [r4, #36]	; 0x24
    277a:	2b03      	cmp	r3, #3
    277c:	f04f 0100 	mov.w	r1, #0
    2780:	f884 102d 	strb.w	r1, [r4, #45]	; 0x2d
    2784:	482c      	ldr	r0, [pc, #176]	; (2838 <SPIM0_SPIS0_TWIM0_TWIS0_SPI0_TWI0_IRQHandler+0x244>)
    2786:	492d      	ldr	r1, [pc, #180]	; (283c <SPIM0_SPIS0_TWIM0_TWIS0_SPI0_TWI0_IRQHandler+0x248>)
    2788:	f884 202c 	strb.w	r2, [r4, #44]	; 0x2c
    278c:	d033      	beq.n	27f6 <SPIM0_SPIS0_TWIM0_TWIS0_SPI0_TWI0_IRQHandler+0x202>
    278e:	b010      	add	sp, #64	; 0x40
    2790:	e8bd 4070 	ldmia.w	sp!, {r4, r5, r6, lr}
    2794:	f7ff bc98 	b.w	20c8 <twi_rx_start_transfer>
    2798:	07d9      	lsls	r1, r3, #31
    279a:	bf4c      	ite	mi
    279c:	2303      	movmi	r3, #3
    279e:	2304      	movpl	r3, #4
    27a0:	f88d 3028 	strb.w	r3, [sp, #40]	; 0x28
    27a4:	e787      	b.n	26b6 <SPIM0_SPIS0_TWIM0_TWIS0_SPI0_TWI0_IRQHandler+0xc2>
    27a6:	6b61      	ldr	r1, [r4, #52]	; 0x34
    27a8:	6aa0      	ldr	r0, [r4, #40]	; 0x28
    27aa:	4281      	cmp	r1, r0
    27ac:	f4bf af48 	bcs.w	2640 <SPIM0_SPIS0_TWIM0_TWIS0_SPI0_TWI0_IRQHandler+0x4c>
    27b0:	6a60      	ldr	r0, [r4, #36]	; 0x24
    27b2:	f8d3 5518 	ldr.w	r5, [r3, #1304]	; 0x518
    27b6:	5445      	strb	r5, [r0, r1]
    27b8:	6b61      	ldr	r1, [r4, #52]	; 0x34
    27ba:	6aa0      	ldr	r0, [r4, #40]	; 0x28
    27bc:	3101      	adds	r1, #1
    27be:	1e45      	subs	r5, r0, #1
    27c0:	42a9      	cmp	r1, r5
    27c2:	6361      	str	r1, [r4, #52]	; 0x34
    27c4:	d021      	beq.n	280a <SPIM0_SPIS0_TWIM0_TWIS0_SPI0_TWI0_IRQHandler+0x216>
    27c6:	4281      	cmp	r1, r0
    27c8:	d026      	beq.n	2818 <SPIM0_SPIS0_TWIM0_TWIS0_SPI0_TWI0_IRQHandler+0x224>
    27ca:	4b1b      	ldr	r3, [pc, #108]	; (2838 <SPIM0_SPIS0_TWIM0_TWIS0_SPI0_TWI0_IRQHandler+0x244>)
    27cc:	2101      	movs	r1, #1
    27ce:	6219      	str	r1, [r3, #32]
    27d0:	e736      	b.n	2640 <SPIM0_SPIS0_TWIM0_TWIS0_SPI0_TWI0_IRQHandler+0x4c>
    27d2:	6aa0      	ldr	r0, [r4, #40]	; 0x28
    27d4:	4281      	cmp	r1, r0
    27d6:	d204      	bcs.n	27e2 <SPIM0_SPIS0_TWIM0_TWIS0_SPI0_TWI0_IRQHandler+0x1ee>
    27d8:	6a60      	ldr	r0, [r4, #36]	; 0x24
    27da:	5c41      	ldrb	r1, [r0, r1]
    27dc:	f8c3 151c 	str.w	r1, [r3, #1308]	; 0x51c
    27e0:	e72e      	b.n	2640 <SPIM0_SPIS0_TWIM0_TWIS0_SPI0_TWI0_IRQHandler+0x4c>
    27e2:	f894 102c 	ldrb.w	r1, [r4, #44]	; 0x2c
    27e6:	2900      	cmp	r1, #0
    27e8:	d1a6      	bne.n	2738 <SPIM0_SPIS0_TWIM0_TWIS0_SPI0_TWI0_IRQHandler+0x144>
    27ea:	6a21      	ldr	r1, [r4, #32]
    27ec:	0649      	lsls	r1, r1, #25
    27ee:	d407      	bmi.n	2800 <SPIM0_SPIS0_TWIM0_TWIS0_SPI0_TWI0_IRQHandler+0x20c>
    27f0:	2101      	movs	r1, #1
    27f2:	6159      	str	r1, [r3, #20]
    27f4:	e724      	b.n	2640 <SPIM0_SPIS0_TWIM0_TWIS0_SPI0_TWI0_IRQHandler+0x4c>
    27f6:	b010      	add	sp, #64	; 0x40
    27f8:	e8bd 4070 	ldmia.w	sp!, {r4, r5, r6, lr}
    27fc:	f7ff bda6 	b.w	234c <twi_tx_start_transfer>
    2800:	2201      	movs	r2, #1
    2802:	61da      	str	r2, [r3, #28]
    2804:	f884 202d 	strb.w	r2, [r4, #45]	; 0x2d
    2808:	e798      	b.n	273c <SPIM0_SPIS0_TWIM0_TWIS0_SPI0_TWI0_IRQHandler+0x148>
    280a:	6a25      	ldr	r5, [r4, #32]
    280c:	066e      	lsls	r6, r5, #25
    280e:	d40f      	bmi.n	2830 <SPIM0_SPIS0_TWIM0_TWIS0_SPI0_TWI0_IRQHandler+0x23c>
    2810:	2102      	movs	r1, #2
    2812:	f8c3 1200 	str.w	r1, [r3, #512]	; 0x200
    2816:	e7d8      	b.n	27ca <SPIM0_SPIS0_TWIM0_TWIS0_SPI0_TWI0_IRQHandler+0x1d6>
    2818:	6a23      	ldr	r3, [r4, #32]
    281a:	065d      	lsls	r5, r3, #25
    281c:	f57f af10 	bpl.w	2640 <SPIM0_SPIS0_TWIM0_TWIS0_SPI0_TWI0_IRQHandler+0x4c>
    2820:	f894 302f 	ldrb.w	r3, [r4, #47]	; 0x2f
    2824:	2202      	movs	r2, #2
    2826:	f884 202d 	strb.w	r2, [r4, #45]	; 0x2d
    282a:	2b00      	cmp	r3, #0
    282c:	d086      	beq.n	273c <SPIM0_SPIS0_TWIM0_TWIS0_SPI0_TWI0_IRQHandler+0x148>
    282e:	e72d      	b.n	268c <SPIM0_SPIS0_TWIM0_TWIS0_SPI0_TWI0_IRQHandler+0x98>
    2830:	4281      	cmp	r1, r0
    2832:	d1ca      	bne.n	27ca <SPIM0_SPIS0_TWIM0_TWIS0_SPI0_TWI0_IRQHandler+0x1d6>
    2834:	e7f4      	b.n	2820 <SPIM0_SPIS0_TWIM0_TWIS0_SPI0_TWI0_IRQHandler+0x22c>
    2836:	bf00      	nop
    2838:	40003000 	.word	0x40003000
    283c:	200007ac 	.word	0x200007ac
    2840:	200007b8 	.word	0x200007b8

00002844 <SPIM1_SPIS1_TWIM1_TWIS1_SPI1_TWI1_IRQHandler>:
    2844:	b570      	push	{r4, r5, r6, lr}
    2846:	f04f 2340 	mov.w	r3, #1073758208	; 0x40004000
    284a:	b090      	sub	sp, #64	; 0x40
    284c:	f8d3 2104 	ldr.w	r2, [r3, #260]	; 0x104
    2850:	b13a      	cbz	r2, 2862 <SPIM1_SPIS1_TWIM1_TWIS1_SPI1_TWI1_IRQHandler+0x1e>
    2852:	2200      	movs	r2, #0
    2854:	f8c3 2104 	str.w	r2, [r3, #260]	; 0x104
    2858:	f8d3 3104 	ldr.w	r3, [r3, #260]	; 0x104
    285c:	9309      	str	r3, [sp, #36]	; 0x24
    285e:	9b09      	ldr	r3, [sp, #36]	; 0x24
    2860:	2201      	movs	r2, #1
    2862:	4c8c      	ldr	r4, [pc, #560]	; (2a94 <SPIM1_SPIS1_TWIM1_TWIS1_SPI1_TWI1_IRQHandler+0x250>)
    2864:	f894 106b 	ldrb.w	r1, [r4, #107]	; 0x6b
    2868:	f04f 2340 	mov.w	r3, #1073758208	; 0x40004000
    286c:	b1a9      	cbz	r1, 289a <SPIM1_SPIS1_TWIM1_TWIS1_SPI1_TWI1_IRQHandler+0x56>
    286e:	2100      	movs	r1, #0
    2870:	f8c3 1124 	str.w	r1, [r3, #292]	; 0x124
    2874:	f8d3 0124 	ldr.w	r0, [r3, #292]	; 0x124
    2878:	9006      	str	r0, [sp, #24]
    287a:	9806      	ldr	r0, [sp, #24]
    287c:	f8c3 111c 	str.w	r1, [r3, #284]	; 0x11c
    2880:	f8d3 011c 	ldr.w	r0, [r3, #284]	; 0x11c
    2884:	9007      	str	r0, [sp, #28]
    2886:	9807      	ldr	r0, [sp, #28]
    2888:	f8c3 1108 	str.w	r1, [r3, #264]	; 0x108
    288c:	f8d3 3108 	ldr.w	r3, [r3, #264]	; 0x108
    2890:	9308      	str	r3, [sp, #32]
    2892:	9b08      	ldr	r3, [sp, #32]
    2894:	b98a      	cbnz	r2, 28ba <SPIM1_SPIS1_TWIM1_TWIS1_SPI1_TWI1_IRQHandler+0x76>
    2896:	b010      	add	sp, #64	; 0x40
    2898:	bd70      	pop	{r4, r5, r6, pc}
    289a:	f8d3 0124 	ldr.w	r0, [r3, #292]	; 0x124
    289e:	2800      	cmp	r0, #0
    28a0:	d03e      	beq.n	2920 <SPIM1_SPIS1_TWIM1_TWIS1_SPI1_TWI1_IRQHandler+0xdc>
    28a2:	f8c3 1124 	str.w	r1, [r3, #292]	; 0x124
    28a6:	f8d3 1124 	ldr.w	r1, [r3, #292]	; 0x124
    28aa:	9105      	str	r1, [sp, #20]
    28ac:	2101      	movs	r1, #1
    28ae:	9805      	ldr	r0, [sp, #20]
    28b0:	f884 106b 	strb.w	r1, [r4, #107]	; 0x6b
    28b4:	6159      	str	r1, [r3, #20]
    28b6:	2a00      	cmp	r2, #0
    28b8:	d0ed      	beq.n	2896 <SPIM1_SPIS1_TWIM1_TWIS1_SPI1_TWI1_IRQHandler+0x52>
    28ba:	f894 306b 	ldrb.w	r3, [r4, #107]	; 0x6b
    28be:	2200      	movs	r2, #0
    28c0:	f884 2069 	strb.w	r2, [r4, #105]	; 0x69
    28c4:	b96b      	cbnz	r3, 28e2 <SPIM1_SPIS1_TWIM1_TWIS1_SPI1_TWI1_IRQHandler+0x9e>
    28c6:	6f21      	ldr	r1, [r4, #112]	; 0x70
    28c8:	6e62      	ldr	r2, [r4, #100]	; 0x64
    28ca:	4291      	cmp	r1, r2
    28cc:	d062      	beq.n	2994 <SPIM1_SPIS1_TWIM1_TWIS1_SPI1_TWI1_IRQHandler+0x150>
    28ce:	f04f 2240 	mov.w	r2, #1073758208	; 0x40004000
    28d2:	2105      	movs	r1, #5
    28d4:	2001      	movs	r0, #1
    28d6:	f8c2 3500 	str.w	r3, [r2, #1280]	; 0x500
    28da:	f884 006b 	strb.w	r0, [r4, #107]	; 0x6b
    28de:	f8c2 1500 	str.w	r1, [r2, #1280]	; 0x500
    28e2:	4d6d      	ldr	r5, [pc, #436]	; (2a98 <SPIM1_SPIS1_TWIM1_TWIS1_SPI1_TWI1_IRQHandler+0x254>)
    28e4:	cd0f      	ldmia	r5!, {r0, r1, r2, r3}
    28e6:	f10d 0c2c 	add.w	ip, sp, #44	; 0x2c
    28ea:	e8ac 000f 	stmia.w	ip!, {r0, r1, r2, r3}
    28ee:	f04f 2640 	mov.w	r6, #1073758208	; 0x40004000
    28f2:	682b      	ldr	r3, [r5, #0]
    28f4:	f8cc 3000 	str.w	r3, [ip]
    28f8:	f8d6 34c4 	ldr.w	r3, [r6, #1220]	; 0x4c4
    28fc:	f8c6 34c4 	str.w	r3, [r6, #1220]	; 0x4c4
    2900:	079a      	lsls	r2, r3, #30
    2902:	d428      	bmi.n	2956 <SPIM1_SPIS1_TWIM1_TWIS1_SPI1_TWI1_IRQHandler+0x112>
    2904:	0758      	lsls	r0, r3, #29
    2906:	d575      	bpl.n	29f4 <SPIM1_SPIS1_TWIM1_TWIS1_SPI1_TWI1_IRQHandler+0x1b0>
    2908:	2302      	movs	r3, #2
    290a:	f88d 3028 	strb.w	r3, [sp, #40]	; 0x28
    290e:	2300      	movs	r3, #0
    2910:	f884 306c 	strb.w	r3, [r4, #108]	; 0x6c
    2914:	e9d4 310f 	ldrd	r3, r1, [r4, #60]	; 0x3c
    2918:	a80a      	add	r0, sp, #40	; 0x28
    291a:	4798      	blx	r3
    291c:	b010      	add	sp, #64	; 0x40
    291e:	bd70      	pop	{r4, r5, r6, pc}
    2920:	f8d3 111c 	ldr.w	r1, [r3, #284]	; 0x11c
    2924:	b1d9      	cbz	r1, 295e <SPIM1_SPIS1_TWIM1_TWIS1_SPI1_TWI1_IRQHandler+0x11a>
    2926:	f8c3 011c 	str.w	r0, [r3, #284]	; 0x11c
    292a:	f8d3 111c 	ldr.w	r1, [r3, #284]	; 0x11c
    292e:	9104      	str	r1, [sp, #16]
    2930:	6f21      	ldr	r1, [r4, #112]	; 0x70
    2932:	9d04      	ldr	r5, [sp, #16]
    2934:	3101      	adds	r1, #1
    2936:	6721      	str	r1, [r4, #112]	; 0x70
    2938:	f8d3 5124 	ldr.w	r5, [r3, #292]	; 0x124
    293c:	2d00      	cmp	r5, #0
    293e:	d077      	beq.n	2a30 <SPIM1_SPIS1_TWIM1_TWIS1_SPI1_TWI1_IRQHandler+0x1ec>
    2940:	f8c3 0124 	str.w	r0, [r3, #292]	; 0x124
    2944:	f8d3 1124 	ldr.w	r1, [r3, #292]	; 0x124
    2948:	9103      	str	r1, [sp, #12]
    294a:	2101      	movs	r1, #1
    294c:	9803      	ldr	r0, [sp, #12]
    294e:	f884 106b 	strb.w	r1, [r4, #107]	; 0x6b
    2952:	6159      	str	r1, [r3, #20]
    2954:	e79e      	b.n	2894 <SPIM1_SPIS1_TWIM1_TWIS1_SPI1_TWI1_IRQHandler+0x50>
    2956:	2301      	movs	r3, #1
    2958:	f88d 3028 	strb.w	r3, [sp, #40]	; 0x28
    295c:	e7d7      	b.n	290e <SPIM1_SPIS1_TWIM1_TWIS1_SPI1_TWI1_IRQHandler+0xca>
    295e:	f8d3 0108 	ldr.w	r0, [r3, #264]	; 0x108
    2962:	2800      	cmp	r0, #0
    2964:	d096      	beq.n	2894 <SPIM1_SPIS1_TWIM1_TWIS1_SPI1_TWI1_IRQHandler+0x50>
    2966:	f8c3 1108 	str.w	r1, [r3, #264]	; 0x108
    296a:	f8d3 0108 	ldr.w	r0, [r3, #264]	; 0x108
    296e:	9002      	str	r0, [sp, #8]
    2970:	9802      	ldr	r0, [sp, #8]
    2972:	f8d3 0124 	ldr.w	r0, [r3, #292]	; 0x124
    2976:	2800      	cmp	r0, #0
    2978:	d043      	beq.n	2a02 <SPIM1_SPIS1_TWIM1_TWIS1_SPI1_TWI1_IRQHandler+0x1be>
    297a:	f8c3 1124 	str.w	r1, [r3, #292]	; 0x124
    297e:	f8d3 1124 	ldr.w	r1, [r3, #292]	; 0x124
    2982:	9101      	str	r1, [sp, #4]
    2984:	2101      	movs	r1, #1
    2986:	9801      	ldr	r0, [sp, #4]
    2988:	f884 106b 	strb.w	r1, [r4, #107]	; 0x6b
    298c:	6159      	str	r1, [r3, #20]
    298e:	e781      	b.n	2894 <SPIM1_SPIS1_TWIM1_TWIS1_SPI1_TWI1_IRQHandler+0x50>
    2990:	2201      	movs	r2, #1
    2992:	61da      	str	r2, [r3, #28]
    2994:	f894 3048 	ldrb.w	r3, [r4, #72]	; 0x48
    2998:	1e9a      	subs	r2, r3, #2
    299a:	2a01      	cmp	r2, #1
    299c:	d90f      	bls.n	29be <SPIM1_SPIS1_TWIM1_TWIS1_SPI1_TWI1_IRQHandler+0x17a>
    299e:	4e3e      	ldr	r6, [pc, #248]	; (2a98 <SPIM1_SPIS1_TWIM1_TWIS1_SPI1_TWI1_IRQHandler+0x254>)
    29a0:	2300      	movs	r3, #0
    29a2:	f88d 3028 	strb.w	r3, [sp, #40]	; 0x28
    29a6:	f884 306c 	strb.w	r3, [r4, #108]	; 0x6c
    29aa:	ce0f      	ldmia	r6!, {r0, r1, r2, r3}
    29ac:	ad0b      	add	r5, sp, #44	; 0x2c
    29ae:	c50f      	stmia	r5!, {r0, r1, r2, r3}
    29b0:	6833      	ldr	r3, [r6, #0]
    29b2:	602b      	str	r3, [r5, #0]
    29b4:	6de3      	ldr	r3, [r4, #92]	; 0x5c
    29b6:	075b      	lsls	r3, r3, #29
    29b8:	d5ac      	bpl.n	2914 <SPIM1_SPIS1_TWIM1_TWIS1_SPI1_TWI1_IRQHandler+0xd0>
    29ba:	b010      	add	sp, #64	; 0x40
    29bc:	bd70      	pop	{r4, r5, r6, pc}
    29be:	6e21      	ldr	r1, [r4, #96]	; 0x60
    29c0:	6d62      	ldr	r2, [r4, #84]	; 0x54
    29c2:	4291      	cmp	r1, r2
    29c4:	d1eb      	bne.n	299e <SPIM1_SPIS1_TWIM1_TWIS1_SPI1_TWI1_IRQHandler+0x15a>
    29c6:	e9d4 0216 	ldrd	r0, r2, [r4, #88]	; 0x58
    29ca:	6d21      	ldr	r1, [r4, #80]	; 0x50
    29cc:	f3c2 1240 	ubfx	r2, r2, #5, #1
    29d0:	e9c4 0118 	strd	r0, r1, [r4, #96]	; 0x60
    29d4:	2b03      	cmp	r3, #3
    29d6:	f04f 0100 	mov.w	r1, #0
    29da:	f884 1069 	strb.w	r1, [r4, #105]	; 0x69
    29de:	f884 2068 	strb.w	r2, [r4, #104]	; 0x68
    29e2:	492e      	ldr	r1, [pc, #184]	; (2a9c <SPIM1_SPIS1_TWIM1_TWIS1_SPI1_TWI1_IRQHandler+0x258>)
    29e4:	f04f 2040 	mov.w	r0, #1073758208	; 0x40004000
    29e8:	d034      	beq.n	2a54 <SPIM1_SPIS1_TWIM1_TWIS1_SPI1_TWI1_IRQHandler+0x210>
    29ea:	b010      	add	sp, #64	; 0x40
    29ec:	e8bd 4070 	ldmia.w	sp!, {r4, r5, r6, lr}
    29f0:	f7ff bb6a 	b.w	20c8 <twi_rx_start_transfer>
    29f4:	07d9      	lsls	r1, r3, #31
    29f6:	bf4c      	ite	mi
    29f8:	2303      	movmi	r3, #3
    29fa:	2304      	movpl	r3, #4
    29fc:	f88d 3028 	strb.w	r3, [sp, #40]	; 0x28
    2a00:	e785      	b.n	290e <SPIM1_SPIS1_TWIM1_TWIS1_SPI1_TWI1_IRQHandler+0xca>
    2a02:	6f21      	ldr	r1, [r4, #112]	; 0x70
    2a04:	6e60      	ldr	r0, [r4, #100]	; 0x64
    2a06:	4281      	cmp	r1, r0
    2a08:	f4bf af44 	bcs.w	2894 <SPIM1_SPIS1_TWIM1_TWIS1_SPI1_TWI1_IRQHandler+0x50>
    2a0c:	6e20      	ldr	r0, [r4, #96]	; 0x60
    2a0e:	f8d3 5518 	ldr.w	r5, [r3, #1304]	; 0x518
    2a12:	5445      	strb	r5, [r0, r1]
    2a14:	6f21      	ldr	r1, [r4, #112]	; 0x70
    2a16:	6e60      	ldr	r0, [r4, #100]	; 0x64
    2a18:	3101      	adds	r1, #1
    2a1a:	1e45      	subs	r5, r0, #1
    2a1c:	42a9      	cmp	r1, r5
    2a1e:	6721      	str	r1, [r4, #112]	; 0x70
    2a20:	d022      	beq.n	2a68 <SPIM1_SPIS1_TWIM1_TWIS1_SPI1_TWI1_IRQHandler+0x224>
    2a22:	4281      	cmp	r1, r0
    2a24:	d027      	beq.n	2a76 <SPIM1_SPIS1_TWIM1_TWIS1_SPI1_TWI1_IRQHandler+0x232>
    2a26:	f04f 2340 	mov.w	r3, #1073758208	; 0x40004000
    2a2a:	2101      	movs	r1, #1
    2a2c:	6219      	str	r1, [r3, #32]
    2a2e:	e731      	b.n	2894 <SPIM1_SPIS1_TWIM1_TWIS1_SPI1_TWI1_IRQHandler+0x50>
    2a30:	6e60      	ldr	r0, [r4, #100]	; 0x64
    2a32:	4281      	cmp	r1, r0
    2a34:	d204      	bcs.n	2a40 <SPIM1_SPIS1_TWIM1_TWIS1_SPI1_TWI1_IRQHandler+0x1fc>
    2a36:	6e20      	ldr	r0, [r4, #96]	; 0x60
    2a38:	5c41      	ldrb	r1, [r0, r1]
    2a3a:	f8c3 151c 	str.w	r1, [r3, #1308]	; 0x51c
    2a3e:	e729      	b.n	2894 <SPIM1_SPIS1_TWIM1_TWIS1_SPI1_TWI1_IRQHandler+0x50>
    2a40:	f894 1068 	ldrb.w	r1, [r4, #104]	; 0x68
    2a44:	2900      	cmp	r1, #0
    2a46:	d1a3      	bne.n	2990 <SPIM1_SPIS1_TWIM1_TWIS1_SPI1_TWI1_IRQHandler+0x14c>
    2a48:	6de1      	ldr	r1, [r4, #92]	; 0x5c
    2a4a:	0649      	lsls	r1, r1, #25
    2a4c:	d407      	bmi.n	2a5e <SPIM1_SPIS1_TWIM1_TWIS1_SPI1_TWI1_IRQHandler+0x21a>
    2a4e:	2101      	movs	r1, #1
    2a50:	6159      	str	r1, [r3, #20]
    2a52:	e71f      	b.n	2894 <SPIM1_SPIS1_TWIM1_TWIS1_SPI1_TWI1_IRQHandler+0x50>
    2a54:	b010      	add	sp, #64	; 0x40
    2a56:	e8bd 4070 	ldmia.w	sp!, {r4, r5, r6, lr}
    2a5a:	f7ff bc77 	b.w	234c <twi_tx_start_transfer>
    2a5e:	2201      	movs	r2, #1
    2a60:	61da      	str	r2, [r3, #28]
    2a62:	f884 2069 	strb.w	r2, [r4, #105]	; 0x69
    2a66:	e795      	b.n	2994 <SPIM1_SPIS1_TWIM1_TWIS1_SPI1_TWI1_IRQHandler+0x150>
    2a68:	6de5      	ldr	r5, [r4, #92]	; 0x5c
    2a6a:	066e      	lsls	r6, r5, #25
    2a6c:	d40f      	bmi.n	2a8e <SPIM1_SPIS1_TWIM1_TWIS1_SPI1_TWI1_IRQHandler+0x24a>
    2a6e:	2102      	movs	r1, #2
    2a70:	f8c3 1200 	str.w	r1, [r3, #512]	; 0x200
    2a74:	e7d7      	b.n	2a26 <SPIM1_SPIS1_TWIM1_TWIS1_SPI1_TWI1_IRQHandler+0x1e2>
    2a76:	6de3      	ldr	r3, [r4, #92]	; 0x5c
    2a78:	065d      	lsls	r5, r3, #25
    2a7a:	f57f af0b 	bpl.w	2894 <SPIM1_SPIS1_TWIM1_TWIS1_SPI1_TWI1_IRQHandler+0x50>
    2a7e:	f894 306b 	ldrb.w	r3, [r4, #107]	; 0x6b
    2a82:	2202      	movs	r2, #2
    2a84:	f884 2069 	strb.w	r2, [r4, #105]	; 0x69
    2a88:	2b00      	cmp	r3, #0
    2a8a:	d083      	beq.n	2994 <SPIM1_SPIS1_TWIM1_TWIS1_SPI1_TWI1_IRQHandler+0x150>
    2a8c:	e729      	b.n	28e2 <SPIM1_SPIS1_TWIM1_TWIS1_SPI1_TWI1_IRQHandler+0x9e>
    2a8e:	4281      	cmp	r1, r0
    2a90:	d1c9      	bne.n	2a26 <SPIM1_SPIS1_TWIM1_TWIS1_SPI1_TWI1_IRQHandler+0x1e2>
    2a92:	e7f4      	b.n	2a7e <SPIM1_SPIS1_TWIM1_TWIS1_SPI1_TWI1_IRQHandler+0x23a>
    2a94:	200007ac 	.word	0x200007ac
    2a98:	200007f4 	.word	0x200007f4
    2a9c:	200007e8 	.word	0x200007e8

00002aa0 <nrfx_twi_xfer>:
    2aa0:	e92d 4ff8 	stmdb	sp!, {r3, r4, r5, r6, r7, r8, r9, sl, fp, lr}
    2aa4:	7904      	ldrb	r4, [r0, #4]
    2aa6:	4f39      	ldr	r7, [pc, #228]	; (2b8c <nrfx_twi_xfer+0xec>)
    2aa8:	f8d0 a000 	ldr.w	sl, [r0]
    2aac:	ebc4 1304 	rsb	r3, r4, r4, lsl #4
    2ab0:	eb07 0383 	add.w	r3, r7, r3, lsl #2
    2ab4:	468c      	mov	ip, r1
    2ab6:	f893 302d 	ldrb.w	r3, [r3, #45]	; 0x2d
    2aba:	2b01      	cmp	r3, #1
    2abc:	4616      	mov	r6, r2
    2abe:	ea4f 1504 	mov.w	r5, r4, lsl #4
    2ac2:	d04d      	beq.n	2b60 <nrfx_twi_xfer+0xc0>
    2ac4:	2b02      	cmp	r3, #2
    2ac6:	d043      	beq.n	2b50 <nrfx_twi_xfer+0xb0>
    2ac8:	eba5 0e04 	sub.w	lr, r5, r4
    2acc:	4b30      	ldr	r3, [pc, #192]	; (2b90 <nrfx_twi_xfer+0xf0>)
    2ace:	f8ca 3308 	str.w	r3, [sl, #776]	; 0x308
    2ad2:	eb07 0e8e 	add.w	lr, r7, lr, lsl #2
    2ad6:	f89e 3030 	ldrb.w	r3, [lr, #48]	; 0x30
    2ada:	2b00      	cmp	r3, #0
    2adc:	d149      	bne.n	2b72 <nrfx_twi_xfer+0xd2>
    2ade:	f086 0304 	eor.w	r3, r6, #4
    2ae2:	f3c3 0380 	ubfx	r3, r3, #2, #1
    2ae6:	f88e 3030 	strb.w	r3, [lr, #48]	; 0x30
    2aea:	f8ce 6020 	str.w	r6, [lr, #32]
    2aee:	46e1      	mov	r9, ip
    2af0:	e8b9 000f 	ldmia.w	r9!, {r0, r1, r2, r3}
    2af4:	f10e 080c 	add.w	r8, lr, #12
    2af8:	e8a8 000f 	stmia.w	r8!, {r0, r1, r2, r3}
    2afc:	f8d9 3000 	ldr.w	r3, [r9]
    2b00:	f8c8 3000 	str.w	r3, [r8]
    2b04:	f8dc 3004 	ldr.w	r3, [ip, #4]
    2b08:	f8ce 3028 	str.w	r3, [lr, #40]	; 0x28
    2b0c:	f8dc 300c 	ldr.w	r3, [ip, #12]
    2b10:	f8ce 3024 	str.w	r3, [lr, #36]	; 0x24
    2b14:	f89c 3001 	ldrb.w	r3, [ip, #1]
    2b18:	f8ca 3588 	str.w	r3, [sl, #1416]	; 0x588
    2b1c:	f89c 3000 	ldrb.w	r3, [ip]
    2b20:	ebc4 1b04 	rsb	fp, r4, r4, lsl #4
    2b24:	2b01      	cmp	r3, #1
    2b26:	eb07 0b8b 	add.w	fp, r7, fp, lsl #2
    2b2a:	d029      	beq.n	2b80 <nrfx_twi_xfer+0xe0>
    2b2c:	b9b3      	cbnz	r3, 2b5c <nrfx_twi_xfer+0xbc>
    2b2e:	f3c6 1640 	ubfx	r6, r6, #5, #1
    2b32:	1b2b      	subs	r3, r5, r4
    2b34:	eb07 0383 	add.w	r3, r7, r3, lsl #2
    2b38:	4659      	mov	r1, fp
    2b3a:	4650      	mov	r0, sl
    2b3c:	f883 602c 	strb.w	r6, [r3, #44]	; 0x2c
    2b40:	f7ff fc04 	bl	234c <twi_tx_start_transfer>
    2b44:	1b2d      	subs	r5, r5, r4
    2b46:	00ad      	lsls	r5, r5, #2
    2b48:	597b      	ldr	r3, [r7, r5]
    2b4a:	b16b      	cbz	r3, 2b68 <nrfx_twi_xfer+0xc8>
    2b4c:	e8bd 8ff8 	ldmia.w	sp!, {r3, r4, r5, r6, r7, r8, r9, sl, fp, pc}
    2b50:	780b      	ldrb	r3, [r1, #0]
    2b52:	2b01      	cmp	r3, #1
    2b54:	d0b8      	beq.n	2ac8 <nrfx_twi_xfer+0x28>
    2b56:	2008      	movs	r0, #8
    2b58:	e8bd 8ff8 	ldmia.w	sp!, {r3, r4, r5, r6, r7, r8, r9, sl, fp, pc}
    2b5c:	2601      	movs	r6, #1
    2b5e:	e7e8      	b.n	2b32 <nrfx_twi_xfer+0x92>
    2b60:	780b      	ldrb	r3, [r1, #0]
    2b62:	2b01      	cmp	r3, #1
    2b64:	d1b0      	bne.n	2ac8 <nrfx_twi_xfer+0x28>
    2b66:	e7f6      	b.n	2b56 <nrfx_twi_xfer+0xb6>
    2b68:	443d      	add	r5, r7
    2b6a:	f885 3030 	strb.w	r3, [r5, #48]	; 0x30
    2b6e:	e8bd 8ff8 	ldmia.w	sp!, {r3, r4, r5, r6, r7, r8, r9, sl, fp, pc}
    2b72:	f8de 3008 	ldr.w	r3, [lr, #8]
    2b76:	f8ca 3304 	str.w	r3, [sl, #772]	; 0x304
    2b7a:	2011      	movs	r0, #17
    2b7c:	e8bd 8ff8 	ldmia.w	sp!, {r3, r4, r5, r6, r7, r8, r9, sl, fp, pc}
    2b80:	4659      	mov	r1, fp
    2b82:	4650      	mov	r0, sl
    2b84:	f7ff faa0 	bl	20c8 <twi_rx_start_transfer>
    2b88:	e7dc      	b.n	2b44 <nrfx_twi_xfer+0xa4>
    2b8a:	bf00      	nop
    2b8c:	200007ac 	.word	0x200007ac
    2b90:	00044286 	.word	0x00044286

00002b94 <GPIOTE_IRQHandler>:
    2b94:	b5f0      	push	{r4, r5, r6, r7, lr}
    2b96:	b085      	sub	sp, #20
    2b98:	4aa2      	ldr	r2, [pc, #648]	; (2e24 <GPIOTE_IRQHandler+0x290>)
    2b9a:	2300      	movs	r3, #0
    2b9c:	9301      	str	r3, [sp, #4]
    2b9e:	f8d2 1100 	ldr.w	r1, [r2, #256]	; 0x100
    2ba2:	2901      	cmp	r1, #1
    2ba4:	f000 811c 	beq.w	2de0 <GPIOTE_IRQHandler+0x24c>
    2ba8:	461e      	mov	r6, r3
    2baa:	4b9e      	ldr	r3, [pc, #632]	; (2e24 <GPIOTE_IRQHandler+0x290>)
    2bac:	f8d3 2104 	ldr.w	r2, [r3, #260]	; 0x104
    2bb0:	2a01      	cmp	r2, #1
    2bb2:	f000 8106 	beq.w	2dc2 <GPIOTE_IRQHandler+0x22e>
    2bb6:	4b9b      	ldr	r3, [pc, #620]	; (2e24 <GPIOTE_IRQHandler+0x290>)
    2bb8:	f8d3 2108 	ldr.w	r2, [r3, #264]	; 0x108
    2bbc:	2a01      	cmp	r2, #1
    2bbe:	f000 80f1 	beq.w	2da4 <GPIOTE_IRQHandler+0x210>
    2bc2:	4b98      	ldr	r3, [pc, #608]	; (2e24 <GPIOTE_IRQHandler+0x290>)
    2bc4:	f8d3 210c 	ldr.w	r2, [r3, #268]	; 0x10c
    2bc8:	2a01      	cmp	r2, #1
    2bca:	f000 80dc 	beq.w	2d86 <GPIOTE_IRQHandler+0x1f2>
    2bce:	4b95      	ldr	r3, [pc, #596]	; (2e24 <GPIOTE_IRQHandler+0x290>)
    2bd0:	f8d3 2110 	ldr.w	r2, [r3, #272]	; 0x110
    2bd4:	2a01      	cmp	r2, #1
    2bd6:	f000 80c7 	beq.w	2d68 <GPIOTE_IRQHandler+0x1d4>
    2bda:	4b92      	ldr	r3, [pc, #584]	; (2e24 <GPIOTE_IRQHandler+0x290>)
    2bdc:	f8d3 2114 	ldr.w	r2, [r3, #276]	; 0x114
    2be0:	2a01      	cmp	r2, #1
    2be2:	f000 80b2 	beq.w	2d4a <GPIOTE_IRQHandler+0x1b6>
    2be6:	4b8f      	ldr	r3, [pc, #572]	; (2e24 <GPIOTE_IRQHandler+0x290>)
    2be8:	f8d3 2118 	ldr.w	r2, [r3, #280]	; 0x118
    2bec:	2a01      	cmp	r2, #1
    2bee:	f000 809d 	beq.w	2d2c <GPIOTE_IRQHandler+0x198>
    2bf2:	4b8c      	ldr	r3, [pc, #560]	; (2e24 <GPIOTE_IRQHandler+0x290>)
    2bf4:	f8d3 211c 	ldr.w	r2, [r3, #284]	; 0x11c
    2bf8:	2a01      	cmp	r2, #1
    2bfa:	d007      	beq.n	2c0c <GPIOTE_IRQHandler+0x78>
    2bfc:	4b89      	ldr	r3, [pc, #548]	; (2e24 <GPIOTE_IRQHandler+0x290>)
    2bfe:	f8d3 317c 	ldr.w	r3, [r3, #380]	; 0x17c
    2c02:	2b01      	cmp	r3, #1
    2c04:	d011      	beq.n	2c2a <GPIOTE_IRQHandler+0x96>
    2c06:	bb1e      	cbnz	r6, 2c50 <GPIOTE_IRQHandler+0xbc>
    2c08:	b005      	add	sp, #20
    2c0a:	bdf0      	pop	{r4, r5, r6, r7, pc}
    2c0c:	f8d3 2304 	ldr.w	r2, [r3, #772]	; 0x304
    2c10:	0612      	lsls	r2, r2, #24
    2c12:	d5f3      	bpl.n	2bfc <GPIOTE_IRQHandler+0x68>
    2c14:	2200      	movs	r2, #0
    2c16:	f8c3 211c 	str.w	r2, [r3, #284]	; 0x11c
    2c1a:	9202      	str	r2, [sp, #8]
    2c1c:	f8d3 317c 	ldr.w	r3, [r3, #380]	; 0x17c
    2c20:	9a02      	ldr	r2, [sp, #8]
    2c22:	2b01      	cmp	r3, #1
    2c24:	f046 0680 	orr.w	r6, r6, #128	; 0x80
    2c28:	d112      	bne.n	2c50 <GPIOTE_IRQHandler+0xbc>
    2c2a:	4b7e      	ldr	r3, [pc, #504]	; (2e24 <GPIOTE_IRQHandler+0x290>)
    2c2c:	2200      	movs	r2, #0
    2c2e:	f8c3 217c 	str.w	r2, [r3, #380]	; 0x17c
    2c32:	f8d3 217c 	ldr.w	r2, [r3, #380]	; 0x17c
    2c36:	9203      	str	r2, [sp, #12]
    2c38:	f04f 43a0 	mov.w	r3, #1342177280	; 0x50000000
    2c3c:	9a03      	ldr	r2, [sp, #12]
    2c3e:	f8d3 2520 	ldr.w	r2, [r3, #1312]	; 0x520
    2c42:	9201      	str	r2, [sp, #4]
    2c44:	f046 4100 	orr.w	r1, r6, #2147483648	; 0x80000000
    2c48:	f8c3 2520 	str.w	r2, [r3, #1312]	; 0x520
    2c4c:	b1ee      	cbz	r6, 2c8a <GPIOTE_IRQHandler+0xf6>
    2c4e:	460e      	mov	r6, r1
    2c50:	4f75      	ldr	r7, [pc, #468]	; (2e28 <GPIOTE_IRQHandler+0x294>)
    2c52:	2400      	movs	r4, #0
    2c54:	2501      	movs	r5, #1
    2c56:	00a3      	lsls	r3, r4, #2
    2c58:	f103 4380 	add.w	r3, r3, #1073741824	; 0x40000000
    2c5c:	4235      	tst	r5, r6
    2c5e:	f503 43c0 	add.w	r3, r3, #24576	; 0x6000
    2c62:	ea4f 0545 	mov.w	r5, r5, lsl #1
    2c66:	d00b      	beq.n	2c80 <GPIOTE_IRQHandler+0xec>
    2c68:	f8d3 0510 	ldr.w	r0, [r3, #1296]	; 0x510
    2c6c:	f857 2024 	ldr.w	r2, [r7, r4, lsl #2]
    2c70:	f8d3 1510 	ldr.w	r1, [r3, #1296]	; 0x510
    2c74:	f3c0 2004 	ubfx	r0, r0, #8, #5
    2c78:	f3c1 4101 	ubfx	r1, r1, #16, #2
    2c7c:	b102      	cbz	r2, 2c80 <GPIOTE_IRQHandler+0xec>
    2c7e:	4790      	blx	r2
    2c80:	3401      	adds	r4, #1
    2c82:	2c08      	cmp	r4, #8
    2c84:	d1e7      	bne.n	2c56 <GPIOTE_IRQHandler+0xc2>
    2c86:	2e00      	cmp	r6, #0
    2c88:	dabe      	bge.n	2c08 <GPIOTE_IRQHandler+0x74>
    2c8a:	4e67      	ldr	r6, [pc, #412]	; (2e28 <GPIOTE_IRQHandler+0x294>)
    2c8c:	2501      	movs	r5, #1
    2c8e:	f04f 44a0 	mov.w	r4, #1342177280	; 0x50000000
    2c92:	f996 0044 	ldrsb.w	r0, [r6, #68]	; 0x44
    2c96:	1c43      	adds	r3, r0, #1
    2c98:	f000 80b2 	beq.w	2e00 <GPIOTE_IRQHandler+0x26c>
    2c9c:	f3c0 02c2 	ubfx	r2, r0, #3, #3
    2ca0:	f102 0310 	add.w	r3, r2, #16
    2ca4:	eb0d 0203 	add.w	r2, sp, r3
    2ca8:	f000 0307 	and.w	r3, r0, #7
    2cac:	f812 2c0c 	ldrb.w	r2, [r2, #-12]
    2cb0:	fa05 f303 	lsl.w	r3, r5, r3
    2cb4:	421a      	tst	r2, r3
    2cb6:	b2c1      	uxtb	r1, r0
    2cb8:	f000 003f 	and.w	r0, r0, #63	; 0x3f
    2cbc:	d029      	beq.n	2d12 <GPIOTE_IRQHandler+0x17e>
    2cbe:	0083      	lsls	r3, r0, #2
    2cc0:	f103 43a0 	add.w	r3, r3, #1342177280	; 0x50000000
    2cc4:	f8d3 2700 	ldr.w	r2, [r3, #1792]	; 0x700
    2cc8:	f8d3 7700 	ldr.w	r7, [r3, #1792]	; 0x700
    2ccc:	f427 3740 	bic.w	r7, r7, #196608	; 0x30000
    2cd0:	f8c3 7700 	str.w	r7, [r3, #1792]	; 0x700
    2cd4:	f3c2 4201 	ubfx	r2, r2, #16, #2
    2cd8:	f8d3 7700 	ldr.w	r7, [r3, #1792]	; 0x700
    2cdc:	2a02      	cmp	r2, #2
    2cde:	bf0c      	ite	eq
    2ce0:	f44f 3c40 	moveq.w	ip, #196608	; 0x30000
    2ce4:	f44f 3c00 	movne.w	ip, #131072	; 0x20000
    2ce8:	ea47 070c 	orr.w	r7, r7, ip
    2cec:	f8c3 7700 	str.w	r7, [r3, #1792]	; 0x700
    2cf0:	fa05 f300 	lsl.w	r3, r5, r0
    2cf4:	f8c4 3520 	str.w	r3, [r4, #1312]	; 0x520
    2cf8:	1833      	adds	r3, r6, r0
    2cfa:	f993 3024 	ldrsb.w	r3, [r3, #36]	; 0x24
    2cfe:	f856 3023 	ldr.w	r3, [r6, r3, lsl #2]
    2d02:	b133      	cbz	r3, 2d12 <GPIOTE_IRQHandler+0x17e>
    2d04:	0989      	lsrs	r1, r1, #6
    2d06:	2903      	cmp	r1, #3
    2d08:	d00e      	beq.n	2d28 <GPIOTE_IRQHandler+0x194>
    2d0a:	2a02      	cmp	r2, #2
    2d0c:	d00a      	beq.n	2d24 <GPIOTE_IRQHandler+0x190>
    2d0e:	2a03      	cmp	r2, #3
    2d10:	d073      	beq.n	2dfa <GPIOTE_IRQHandler+0x266>
    2d12:	f8d4 3520 	ldr.w	r3, [r4, #1312]	; 0x520
    2d16:	9301      	str	r3, [sp, #4]
    2d18:	f8c4 3520 	str.w	r3, [r4, #1312]	; 0x520
    2d1c:	2b00      	cmp	r3, #0
    2d1e:	d1b8      	bne.n	2c92 <GPIOTE_IRQHandler+0xfe>
    2d20:	b005      	add	sp, #20
    2d22:	bdf0      	pop	{r4, r5, r6, r7, pc}
    2d24:	2901      	cmp	r1, #1
    2d26:	d1f4      	bne.n	2d12 <GPIOTE_IRQHandler+0x17e>
    2d28:	4798      	blx	r3
    2d2a:	e7f2      	b.n	2d12 <GPIOTE_IRQHandler+0x17e>
    2d2c:	f8d3 2304 	ldr.w	r2, [r3, #772]	; 0x304
    2d30:	0651      	lsls	r1, r2, #25
    2d32:	f57f af5e 	bpl.w	2bf2 <GPIOTE_IRQHandler+0x5e>
    2d36:	2200      	movs	r2, #0
    2d38:	f8c3 2118 	str.w	r2, [r3, #280]	; 0x118
    2d3c:	f8d3 3118 	ldr.w	r3, [r3, #280]	; 0x118
    2d40:	9302      	str	r3, [sp, #8]
    2d42:	9b02      	ldr	r3, [sp, #8]
    2d44:	f046 0640 	orr.w	r6, r6, #64	; 0x40
    2d48:	e753      	b.n	2bf2 <GPIOTE_IRQHandler+0x5e>
    2d4a:	f8d3 2304 	ldr.w	r2, [r3, #772]	; 0x304
    2d4e:	0690      	lsls	r0, r2, #26
    2d50:	f57f af49 	bpl.w	2be6 <GPIOTE_IRQHandler+0x52>
    2d54:	2200      	movs	r2, #0
    2d56:	f8c3 2114 	str.w	r2, [r3, #276]	; 0x114
    2d5a:	f8d3 3114 	ldr.w	r3, [r3, #276]	; 0x114
    2d5e:	9302      	str	r3, [sp, #8]
    2d60:	9b02      	ldr	r3, [sp, #8]
    2d62:	f046 0620 	orr.w	r6, r6, #32
    2d66:	e73e      	b.n	2be6 <GPIOTE_IRQHandler+0x52>
    2d68:	f8d3 2304 	ldr.w	r2, [r3, #772]	; 0x304
    2d6c:	06d4      	lsls	r4, r2, #27
    2d6e:	f57f af34 	bpl.w	2bda <GPIOTE_IRQHandler+0x46>
    2d72:	2200      	movs	r2, #0
    2d74:	f8c3 2110 	str.w	r2, [r3, #272]	; 0x110
    2d78:	f8d3 3110 	ldr.w	r3, [r3, #272]	; 0x110
    2d7c:	9302      	str	r3, [sp, #8]
    2d7e:	9b02      	ldr	r3, [sp, #8]
    2d80:	f046 0610 	orr.w	r6, r6, #16
    2d84:	e729      	b.n	2bda <GPIOTE_IRQHandler+0x46>
    2d86:	f8d3 2304 	ldr.w	r2, [r3, #772]	; 0x304
    2d8a:	0715      	lsls	r5, r2, #28
    2d8c:	f57f af1f 	bpl.w	2bce <GPIOTE_IRQHandler+0x3a>
    2d90:	2200      	movs	r2, #0
    2d92:	f8c3 210c 	str.w	r2, [r3, #268]	; 0x10c
    2d96:	f8d3 310c 	ldr.w	r3, [r3, #268]	; 0x10c
    2d9a:	9302      	str	r3, [sp, #8]
    2d9c:	9b02      	ldr	r3, [sp, #8]
    2d9e:	f046 0608 	orr.w	r6, r6, #8
    2da2:	e714      	b.n	2bce <GPIOTE_IRQHandler+0x3a>
    2da4:	f8d3 2304 	ldr.w	r2, [r3, #772]	; 0x304
    2da8:	0757      	lsls	r7, r2, #29
    2daa:	f57f af0a 	bpl.w	2bc2 <GPIOTE_IRQHandler+0x2e>
    2dae:	2200      	movs	r2, #0
    2db0:	f8c3 2108 	str.w	r2, [r3, #264]	; 0x108
    2db4:	f8d3 3108 	ldr.w	r3, [r3, #264]	; 0x108
    2db8:	9302      	str	r3, [sp, #8]
    2dba:	9b02      	ldr	r3, [sp, #8]
    2dbc:	f046 0604 	orr.w	r6, r6, #4
    2dc0:	e6ff      	b.n	2bc2 <GPIOTE_IRQHandler+0x2e>
    2dc2:	f8d3 2304 	ldr.w	r2, [r3, #772]	; 0x304
    2dc6:	0792      	lsls	r2, r2, #30
    2dc8:	f57f aef5 	bpl.w	2bb6 <GPIOTE_IRQHandler+0x22>
    2dcc:	2200      	movs	r2, #0
    2dce:	f8c3 2104 	str.w	r2, [r3, #260]	; 0x104
    2dd2:	f8d3 3104 	ldr.w	r3, [r3, #260]	; 0x104
    2dd6:	9302      	str	r3, [sp, #8]
    2dd8:	9b02      	ldr	r3, [sp, #8]
    2dda:	f046 0602 	orr.w	r6, r6, #2
    2dde:	e6ea      	b.n	2bb6 <GPIOTE_IRQHandler+0x22>
    2de0:	f8d2 6304 	ldr.w	r6, [r2, #772]	; 0x304
    2de4:	f016 0601 	ands.w	r6, r6, #1
    2de8:	f43f aedf 	beq.w	2baa <GPIOTE_IRQHandler+0x16>
    2dec:	f8c2 3100 	str.w	r3, [r2, #256]	; 0x100
    2df0:	f8d2 3100 	ldr.w	r3, [r2, #256]	; 0x100
    2df4:	9302      	str	r3, [sp, #8]
    2df6:	9b02      	ldr	r3, [sp, #8]
    2df8:	e6d7      	b.n	2baa <GPIOTE_IRQHandler+0x16>
    2dfa:	2902      	cmp	r1, #2
    2dfc:	d189      	bne.n	2d12 <GPIOTE_IRQHandler+0x17e>
    2dfe:	e793      	b.n	2d28 <GPIOTE_IRQHandler+0x194>
    2e00:	f04f 42a0 	mov.w	r2, #1342177280	; 0x50000000
    2e04:	f8d2 3520 	ldr.w	r3, [r2, #1312]	; 0x520
    2e08:	9301      	str	r3, [sp, #4]
    2e0a:	f8c2 3520 	str.w	r3, [r2, #1312]	; 0x520
    2e0e:	2b00      	cmp	r3, #0
    2e10:	f43f aefa 	beq.w	2c08 <GPIOTE_IRQHandler+0x74>
    2e14:	f8d2 3520 	ldr.w	r3, [r2, #1312]	; 0x520
    2e18:	f8c2 3520 	str.w	r3, [r2, #1312]	; 0x520
    2e1c:	2b00      	cmp	r3, #0
    2e1e:	d1f9      	bne.n	2e14 <GPIOTE_IRQHandler+0x280>
    2e20:	b005      	add	sp, #20
    2e22:	bdf0      	pop	{r4, r5, r6, r7, pc}
    2e24:	40006000 	.word	0x40006000
    2e28:	20000828 	.word	0x20000828

00002e2c <SAADC_IRQHandler>:
    2e2c:	e92d 41f0 	stmdb	sp!, {r4, r5, r6, r7, r8, lr}
    2e30:	4b67      	ldr	r3, [pc, #412]	; (2fd0 <SAADC_IRQHandler+0x1a4>)
    2e32:	4f68      	ldr	r7, [pc, #416]	; (2fd4 <SAADC_IRQHandler+0x1a8>)
    2e34:	f8d3 2104 	ldr.w	r2, [r3, #260]	; 0x104
    2e38:	b088      	sub	sp, #32
    2e3a:	b312      	cbz	r2, 2e82 <SAADC_IRQHandler+0x56>
    2e3c:	2100      	movs	r1, #0
    2e3e:	f8c3 1104 	str.w	r1, [r3, #260]	; 0x104
    2e42:	f8d3 0104 	ldr.w	r0, [r3, #260]	; 0x104
    2e46:	f897 202e 	ldrb.w	r2, [r7, #46]	; 0x2e
    2e4a:	9000      	str	r0, [sp, #0]
    2e4c:	9800      	ldr	r0, [sp, #0]
    2e4e:	2a00      	cmp	r2, #0
    2e50:	d13b      	bne.n	2eca <SAADC_IRQHandler+0x9e>
    2e52:	6878      	ldr	r0, [r7, #4]
    2e54:	68f9      	ldr	r1, [r7, #12]
    2e56:	9006      	str	r0, [sp, #24]
    2e58:	8938      	ldrh	r0, [r7, #8]
    2e5a:	f88d 2014 	strb.w	r2, [sp, #20]
    2e5e:	f8ad 001c 	strh.w	r0, [sp, #28]
    2e62:	2900      	cmp	r1, #0
    2e64:	f000 80a1 	beq.w	2faa <SAADC_IRQHandler+0x17e>
    2e68:	8b38      	ldrh	r0, [r7, #24]
    2e6a:	6079      	str	r1, [r7, #4]
    2e6c:	2101      	movs	r1, #1
    2e6e:	8378      	strh	r0, [r7, #26]
    2e70:	8138      	strh	r0, [r7, #8]
    2e72:	60fa      	str	r2, [r7, #12]
    2e74:	6019      	str	r1, [r3, #0]
    2e76:	683b      	ldr	r3, [r7, #0]
    2e78:	a805      	add	r0, sp, #20
    2e7a:	4798      	blx	r3
    2e7c:	2300      	movs	r3, #0
    2e7e:	f887 302f 	strb.w	r3, [r7, #47]	; 0x2f
    2e82:	f897 302e 	ldrb.w	r3, [r7, #46]	; 0x2e
    2e86:	bb23      	cbnz	r3, 2ed2 <SAADC_IRQHandler+0xa6>
    2e88:	4b51      	ldr	r3, [pc, #324]	; (2fd0 <SAADC_IRQHandler+0x1a4>)
    2e8a:	f8d3 2110 	ldr.w	r2, [r3, #272]	; 0x110
    2e8e:	b16a      	cbz	r2, 2eac <SAADC_IRQHandler+0x80>
    2e90:	2200      	movs	r2, #0
    2e92:	f8c3 2110 	str.w	r2, [r3, #272]	; 0x110
    2e96:	f8d3 3110 	ldr.w	r3, [r3, #272]	; 0x110
    2e9a:	9303      	str	r3, [sp, #12]
    2e9c:	2102      	movs	r1, #2
    2e9e:	f88d 1014 	strb.w	r1, [sp, #20]
    2ea2:	683b      	ldr	r3, [r7, #0]
    2ea4:	9903      	ldr	r1, [sp, #12]
    2ea6:	743a      	strb	r2, [r7, #16]
    2ea8:	a805      	add	r0, sp, #20
    2eaa:	4798      	blx	r3
    2eac:	4b48      	ldr	r3, [pc, #288]	; (2fd0 <SAADC_IRQHandler+0x1a4>)
    2eae:	f8d3 4114 	ldr.w	r4, [r3, #276]	; 0x114
    2eb2:	b364      	cbz	r4, 2f0e <SAADC_IRQHandler+0xe2>
    2eb4:	2200      	movs	r2, #0
    2eb6:	f8c3 2114 	str.w	r2, [r3, #276]	; 0x114
    2eba:	f8d3 3114 	ldr.w	r3, [r3, #276]	; 0x114
    2ebe:	9305      	str	r3, [sp, #20]
    2ec0:	9b05      	ldr	r3, [sp, #20]
    2ec2:	743a      	strb	r2, [r7, #16]
    2ec4:	b008      	add	sp, #32
    2ec6:	e8bd 81f0 	ldmia.w	sp!, {r4, r5, r6, r7, r8, pc}
    2eca:	f897 302f 	ldrb.w	r3, [r7, #47]	; 0x2f
    2ece:	2b00      	cmp	r3, #0
    2ed0:	d14e      	bne.n	2f70 <SAADC_IRQHandler+0x144>
    2ed2:	4b3f      	ldr	r3, [pc, #252]	; (2fd0 <SAADC_IRQHandler+0x1a4>)
    2ed4:	f8d3 2100 	ldr.w	r2, [r3, #256]	; 0x100
    2ed8:	2a00      	cmp	r2, #0
    2eda:	d0d5      	beq.n	2e88 <SAADC_IRQHandler+0x5c>
    2edc:	2000      	movs	r0, #0
    2ede:	f8c3 0100 	str.w	r0, [r3, #256]	; 0x100
    2ee2:	f897 102d 	ldrb.w	r1, [r7, #45]	; 0x2d
    2ee6:	8b7a      	ldrh	r2, [r7, #26]
    2ee8:	f8d3 4100 	ldr.w	r4, [r3, #256]	; 0x100
    2eec:	9401      	str	r4, [sp, #4]
    2eee:	428a      	cmp	r2, r1
    2ef0:	9c01      	ldr	r4, [sp, #4]
    2ef2:	b28c      	uxth	r4, r1
    2ef4:	d84b      	bhi.n	2f8e <SAADC_IRQHandler+0x162>
    2ef6:	d05b      	beq.n	2fb0 <SAADC_IRQHandler+0x184>
    2ef8:	4b35      	ldr	r3, [pc, #212]	; (2fd0 <SAADC_IRQHandler+0x1a4>)
    2efa:	2200      	movs	r2, #0
    2efc:	f8c3 2104 	str.w	r2, [r3, #260]	; 0x104
    2f00:	f8d3 2104 	ldr.w	r2, [r3, #260]	; 0x104
    2f04:	9202      	str	r2, [sp, #8]
    2f06:	2201      	movs	r2, #1
    2f08:	9902      	ldr	r1, [sp, #8]
    2f0a:	605a      	str	r2, [r3, #4]
    2f0c:	e7bc      	b.n	2e88 <SAADC_IRQHandler+0x5c>
    2f0e:	697e      	ldr	r6, [r7, #20]
    2f10:	2e00      	cmp	r6, #0
    2f12:	d0d7      	beq.n	2ec4 <SAADC_IRQHandler+0x98>
    2f14:	f04f 4800 	mov.w	r8, #2147483648	; 0x80000000
    2f18:	2501      	movs	r5, #1
    2f1a:	fab6 f186 	clz	r1, r6
    2f1e:	f101 0346 	add.w	r3, r1, #70	; 0x46
    2f22:	009b      	lsls	r3, r3, #2
    2f24:	f103 4280 	add.w	r2, r3, #1073741824	; 0x40000000
    2f28:	f502 42e0 	add.w	r2, r2, #28672	; 0x7000
    2f2c:	f5a3 738c 	sub.w	r3, r3, #280	; 0x118
    2f30:	f8d2 e000 	ldr.w	lr, [r2]
    2f34:	f083 0004 	eor.w	r0, r3, #4
    2f38:	fa28 f101 	lsr.w	r1, r8, r1
    2f3c:	f3c0 0c80 	ubfx	ip, r0, #2, #1
    2f40:	08db      	lsrs	r3, r3, #3
    2f42:	a805      	add	r0, sp, #20
    2f44:	ea26 0601 	bic.w	r6, r6, r1
    2f48:	f1be 0f00 	cmp.w	lr, #0
    2f4c:	d00b      	beq.n	2f66 <SAADC_IRQHandler+0x13a>
    2f4e:	6014      	str	r4, [r2, #0]
    2f50:	6812      	ldr	r2, [r2, #0]
    2f52:	9204      	str	r2, [sp, #16]
    2f54:	f88d 3018 	strb.w	r3, [sp, #24]
    2f58:	683a      	ldr	r2, [r7, #0]
    2f5a:	f88d 5014 	strb.w	r5, [sp, #20]
    2f5e:	f88d c019 	strb.w	ip, [sp, #25]
    2f62:	9b04      	ldr	r3, [sp, #16]
    2f64:	4790      	blx	r2
    2f66:	2e00      	cmp	r6, #0
    2f68:	d1d7      	bne.n	2f1a <SAADC_IRQHandler+0xee>
    2f6a:	b008      	add	sp, #32
    2f6c:	e8bd 81f0 	ldmia.w	sp!, {r4, r5, r6, r7, r8, pc}
    2f70:	68fb      	ldr	r3, [r7, #12]
    2f72:	6878      	ldr	r0, [r7, #4]
    2f74:	893a      	ldrh	r2, [r7, #8]
    2f76:	f88d 1014 	strb.w	r1, [sp, #20]
    2f7a:	9006      	str	r0, [sp, #24]
    2f7c:	f8ad 201c 	strh.w	r2, [sp, #28]
    2f80:	b19b      	cbz	r3, 2faa <SAADC_IRQHandler+0x17e>
    2f82:	8b3a      	ldrh	r2, [r7, #24]
    2f84:	837a      	strh	r2, [r7, #26]
    2f86:	607b      	str	r3, [r7, #4]
    2f88:	813a      	strh	r2, [r7, #8]
    2f8a:	60f9      	str	r1, [r7, #12]
    2f8c:	e773      	b.n	2e76 <SAADC_IRQHandler+0x4a>
    2f8e:	8938      	ldrh	r0, [r7, #8]
    2f90:	1b12      	subs	r2, r2, r4
    2f92:	b292      	uxth	r2, r2
    2f94:	b280      	uxth	r0, r0
    2f96:	837a      	strh	r2, [r7, #26]
    2f98:	1a80      	subs	r0, r0, r2
    2f9a:	687a      	ldr	r2, [r7, #4]
    2f9c:	eb02 0240 	add.w	r2, r2, r0, lsl #1
    2fa0:	f8c3 262c 	str.w	r2, [r3, #1580]	; 0x62c
    2fa4:	f8c3 1630 	str.w	r1, [r3, #1584]	; 0x630
    2fa8:	e7a6      	b.n	2ef8 <SAADC_IRQHandler+0xcc>
    2faa:	2300      	movs	r3, #0
    2fac:	743b      	strb	r3, [r7, #16]
    2fae:	e762      	b.n	2e76 <SAADC_IRQHandler+0x4a>
    2fb0:	68fa      	ldr	r2, [r7, #12]
    2fb2:	b142      	cbz	r2, 2fc6 <SAADC_IRQHandler+0x19a>
    2fb4:	8378      	strh	r0, [r7, #26]
    2fb6:	2001      	movs	r0, #1
    2fb8:	f887 002f 	strb.w	r0, [r7, #47]	; 0x2f
    2fbc:	f8c3 262c 	str.w	r2, [r3, #1580]	; 0x62c
    2fc0:	f8c3 1630 	str.w	r1, [r3, #1584]	; 0x630
    2fc4:	e798      	b.n	2ef8 <SAADC_IRQHandler+0xcc>
    2fc6:	2301      	movs	r3, #1
    2fc8:	f887 302f 	strb.w	r3, [r7, #47]	; 0x2f
    2fcc:	837a      	strh	r2, [r7, #26]
    2fce:	e793      	b.n	2ef8 <SAADC_IRQHandler+0xcc>
    2fd0:	40007000 	.word	0x40007000
    2fd4:	20000874 	.word	0x20000874

00002fd8 <main>:
    2fd8:	f04f 43a0 	mov.w	r3, #1342177280	; 0x50000000
    2fdc:	2208      	movs	r2, #8
    2fde:	f8c3 2510 	str.w	r2, [r3, #1296]	; 0x510
    2fe2:	f8c3 2500 	str.w	r2, [r3, #1280]	; 0x500
    2fe6:	e7fe      	b.n	2fe6 <main+0xe>

00002fe8 <SystemInit>:
    2fe8:	b410      	push	{r4}
    2fea:	f04f 5380 	mov.w	r3, #268435456	; 0x10000000
    2fee:	f8d3 3130 	ldr.w	r3, [r3, #304]	; 0x130
    2ff2:	1c5a      	adds	r2, r3, #1
    2ff4:	bf04      	itt	eq
    2ff6:	f04f 4370 	moveq.w	r3, #4026531840	; 0xf0000000
    2ffa:	f893 3fe0 	ldrbeq.w	r3, [r3, #4064]	; 0xfe0
    2ffe:	2b06      	cmp	r3, #6
    3000:	d108      	bne.n	3014 <SystemInit+0x2c>
    3002:	f04f 5380 	mov.w	r3, #268435456	; 0x10000000
    3006:	4ab3      	ldr	r2, [pc, #716]	; (32d4 <SystemInit+0x2ec>)
    3008:	f8d3 3324 	ldr.w	r3, [r3, #804]	; 0x324
    300c:	f3c3 2304 	ubfx	r3, r3, #8, #5
    3010:	f8c2 3540 	str.w	r3, [r2, #1344]	; 0x540
    3014:	f04f 4370 	mov.w	r3, #4026531840	; 0xf0000000
    3018:	f893 2fe0 	ldrb.w	r2, [r3, #4064]	; 0xfe0
    301c:	2a06      	cmp	r2, #6
    301e:	f000 811b 	beq.w	3258 <SystemInit+0x270>
    3022:	f04f 5380 	mov.w	r3, #268435456	; 0x10000000
    3026:	f8d3 3130 	ldr.w	r3, [r3, #304]	; 0x130
    302a:	1c5c      	adds	r4, r3, #1
    302c:	bf04      	itt	eq
    302e:	f04f 4370 	moveq.w	r3, #4026531840	; 0xf0000000
    3032:	f893 3fe0 	ldrbeq.w	r3, [r3, #4064]	; 0xfe0
    3036:	2b06      	cmp	r3, #6
    3038:	d109      	bne.n	304e <SystemInit+0x66>
    303a:	f04f 5380 	mov.w	r3, #268435456	; 0x10000000
    303e:	f04f 4280 	mov.w	r2, #1073741824	; 0x40000000
    3042:	f8d3 3244 	ldr.w	r3, [r3, #580]	; 0x244
    3046:	f3c3 3342 	ubfx	r3, r3, #13, #3
    304a:	f8c2 353c 	str.w	r3, [r2, #1340]	; 0x53c
    304e:	f04f 4370 	mov.w	r3, #4026531840	; 0xf0000000
    3052:	f893 2fe0 	ldrb.w	r2, [r3, #4064]	; 0xfe0
    3056:	2a06      	cmp	r2, #6
    3058:	f000 80e9 	beq.w	322e <SystemInit+0x246>
    305c:	f04f 5380 	mov.w	r3, #268435456	; 0x10000000
    3060:	f8d3 3130 	ldr.w	r3, [r3, #304]	; 0x130
    3064:	1c58      	adds	r0, r3, #1
    3066:	bf04      	itt	eq
    3068:	f04f 4370 	moveq.w	r3, #4026531840	; 0xf0000000
    306c:	f893 3fe0 	ldrbeq.w	r3, [r3, #4064]	; 0xfe0
    3070:	2b06      	cmp	r3, #6
    3072:	d108      	bne.n	3086 <SystemInit+0x9e>
    3074:	f04f 4380 	mov.w	r3, #1073741824	; 0x40000000
    3078:	2200      	movs	r2, #0
    307a:	f8c3 210c 	str.w	r2, [r3, #268]	; 0x10c
    307e:	f8c3 2110 	str.w	r2, [r3, #272]	; 0x110
    3082:	f8c3 2538 	str.w	r2, [r3, #1336]	; 0x538
    3086:	f04f 4370 	mov.w	r3, #4026531840	; 0xf0000000
    308a:	f893 2fe0 	ldrb.w	r2, [r3, #4064]	; 0xfe0
    308e:	2a06      	cmp	r2, #6
    3090:	f000 80aa 	beq.w	31e8 <SystemInit+0x200>
    3094:	f04f 5280 	mov.w	r2, #268435456	; 0x10000000
    3098:	f8d2 3130 	ldr.w	r3, [r2, #304]	; 0x130
    309c:	1c59      	adds	r1, r3, #1
    309e:	d020      	beq.n	30e2 <SystemInit+0xfa>
    30a0:	2b06      	cmp	r3, #6
    30a2:	f8d2 2134 	ldr.w	r2, [r2, #308]	; 0x134
    30a6:	d026      	beq.n	30f6 <SystemInit+0x10e>
    30a8:	4a8b      	ldr	r2, [pc, #556]	; (32d8 <SystemInit+0x2f0>)
    30aa:	f8d2 3088 	ldr.w	r3, [r2, #136]	; 0x88
    30ae:	f443 0370 	orr.w	r3, r3, #15728640	; 0xf00000
    30b2:	f8c2 3088 	str.w	r3, [r2, #136]	; 0x88
    30b6:	f3bf 8f4f 	dsb	sy
    30ba:	f3bf 8f6f 	isb	sy
    30be:	f04f 2310 	mov.w	r3, #268439552	; 0x10001000
    30c2:	f8d3 2200 	ldr.w	r2, [r3, #512]	; 0x200
    30c6:	2a00      	cmp	r2, #0
    30c8:	f2c0 8122 	blt.w	3310 <SystemInit+0x328>
    30cc:	f8d3 3204 	ldr.w	r3, [r3, #516]	; 0x204
    30d0:	2b00      	cmp	r3, #0
    30d2:	f2c0 811d 	blt.w	3310 <SystemInit+0x328>
    30d6:	4b81      	ldr	r3, [pc, #516]	; (32dc <SystemInit+0x2f4>)
    30d8:	4a81      	ldr	r2, [pc, #516]	; (32e0 <SystemInit+0x2f8>)
    30da:	601a      	str	r2, [r3, #0]
    30dc:	f85d 4b04 	ldr.w	r4, [sp], #4
    30e0:	4770      	bx	lr
    30e2:	f04f 4270 	mov.w	r2, #4026531840	; 0xf0000000
    30e6:	f892 1fe0 	ldrb.w	r1, [r2, #4064]	; 0xfe0
    30ea:	f8d2 2fe8 	ldr.w	r2, [r2, #4072]	; 0xfe8
    30ee:	2906      	cmp	r1, #6
    30f0:	d1da      	bne.n	30a8 <SystemInit+0xc0>
    30f2:	f3c2 1203 	ubfx	r2, r2, #4, #4
    30f6:	3a03      	subs	r2, #3
    30f8:	2a03      	cmp	r2, #3
    30fa:	f240 80c4 	bls.w	3286 <SystemInit+0x29e>
    30fe:	f04f 5380 	mov.w	r3, #268435456	; 0x10000000
    3102:	4a78      	ldr	r2, [pc, #480]	; (32e4 <SystemInit+0x2fc>)
    3104:	f8d3 1404 	ldr.w	r1, [r3, #1028]	; 0x404
    3108:	f8c2 1520 	str.w	r1, [r2, #1312]	; 0x520
    310c:	f8d3 1408 	ldr.w	r1, [r3, #1032]	; 0x408
    3110:	f8c2 1524 	str.w	r1, [r2, #1316]	; 0x524
    3114:	f8d3 140c 	ldr.w	r1, [r3, #1036]	; 0x40c
    3118:	f8c2 1528 	str.w	r1, [r2, #1320]	; 0x528
    311c:	f8d3 1410 	ldr.w	r1, [r3, #1040]	; 0x410
    3120:	f8c2 152c 	str.w	r1, [r2, #1324]	; 0x52c
    3124:	f8d3 1414 	ldr.w	r1, [r3, #1044]	; 0x414
    3128:	f8c2 1530 	str.w	r1, [r2, #1328]	; 0x530
    312c:	f8d3 1418 	ldr.w	r1, [r3, #1048]	; 0x418
    3130:	f8c2 1534 	str.w	r1, [r2, #1332]	; 0x534
    3134:	f8d3 141c 	ldr.w	r1, [r3, #1052]	; 0x41c
    3138:	f8c2 1540 	str.w	r1, [r2, #1344]	; 0x540
    313c:	f8d3 1420 	ldr.w	r1, [r3, #1056]	; 0x420
    3140:	f8c2 1544 	str.w	r1, [r2, #1348]	; 0x544
    3144:	f8d3 1424 	ldr.w	r1, [r3, #1060]	; 0x424
    3148:	f8c2 1548 	str.w	r1, [r2, #1352]	; 0x548
    314c:	f8d3 1428 	ldr.w	r1, [r3, #1064]	; 0x428
    3150:	f8c2 154c 	str.w	r1, [r2, #1356]	; 0x54c
    3154:	f8d3 142c 	ldr.w	r1, [r3, #1068]	; 0x42c
    3158:	f8c2 1550 	str.w	r1, [r2, #1360]	; 0x550
    315c:	f8d3 1430 	ldr.w	r1, [r3, #1072]	; 0x430
    3160:	f8c2 1554 	str.w	r1, [r2, #1364]	; 0x554
    3164:	f8d3 1434 	ldr.w	r1, [r3, #1076]	; 0x434
    3168:	f8c2 1560 	str.w	r1, [r2, #1376]	; 0x560
    316c:	f8d3 1438 	ldr.w	r1, [r3, #1080]	; 0x438
    3170:	f8c2 1564 	str.w	r1, [r2, #1380]	; 0x564
    3174:	f8d3 143c 	ldr.w	r1, [r3, #1084]	; 0x43c
    3178:	f8c2 1568 	str.w	r1, [r2, #1384]	; 0x568
    317c:	f8d3 1440 	ldr.w	r1, [r3, #1088]	; 0x440
    3180:	f8c2 156c 	str.w	r1, [r2, #1388]	; 0x56c
    3184:	f8d3 1444 	ldr.w	r1, [r3, #1092]	; 0x444
    3188:	f8d3 3130 	ldr.w	r3, [r3, #304]	; 0x130
    318c:	f8c2 1570 	str.w	r1, [r2, #1392]	; 0x570
    3190:	1c5c      	adds	r4, r3, #1
    3192:	bf04      	itt	eq
    3194:	f04f 4370 	moveq.w	r3, #4026531840	; 0xf0000000
    3198:	f893 3fe0 	ldrbeq.w	r3, [r3, #4064]	; 0xfe0
    319c:	2b06      	cmp	r3, #6
    319e:	d183      	bne.n	30a8 <SystemInit+0xc0>
    31a0:	f04f 5280 	mov.w	r2, #268435456	; 0x10000000
    31a4:	f04f 4180 	mov.w	r1, #1073741824	; 0x40000000
    31a8:	f8d2 3258 	ldr.w	r3, [r2, #600]	; 0x258
    31ac:	f8d2 2130 	ldr.w	r2, [r2, #304]	; 0x130
    31b0:	f003 034f 	and.w	r3, r3, #79	; 0x4f
    31b4:	1c50      	adds	r0, r2, #1
    31b6:	f8c1 3ee4 	str.w	r3, [r1, #3812]	; 0xee4
    31ba:	d069      	beq.n	3290 <SystemInit+0x2a8>
    31bc:	2a06      	cmp	r2, #6
    31be:	f47f af73 	bne.w	30a8 <SystemInit+0xc0>
    31c2:	f8d1 3400 	ldr.w	r3, [r1, #1024]	; 0x400
    31c6:	07da      	lsls	r2, r3, #31
    31c8:	d46e      	bmi.n	32a8 <SystemInit+0x2c0>
    31ca:	f04f 5380 	mov.w	r3, #268435456	; 0x10000000
    31ce:	f8d3 3134 	ldr.w	r3, [r3, #308]	; 0x134
    31d2:	3b03      	subs	r3, #3
    31d4:	2b03      	cmp	r3, #3
    31d6:	d950      	bls.n	327a <SystemInit+0x292>
    31d8:	4a43      	ldr	r2, [pc, #268]	; (32e8 <SystemInit+0x300>)
    31da:	f8d2 373c 	ldr.w	r3, [r2, #1852]	; 0x73c
    31de:	f443 6380 	orr.w	r3, r3, #1024	; 0x400
    31e2:	f8c2 373c 	str.w	r3, [r2, #1852]	; 0x73c
    31e6:	e75f      	b.n	30a8 <SystemInit+0xc0>
    31e8:	f8d3 3fe8 	ldr.w	r3, [r3, #4072]	; 0xfe8
    31ec:	f3c3 1303 	ubfx	r3, r3, #4, #4
    31f0:	3b03      	subs	r3, #3
    31f2:	2b03      	cmp	r3, #3
    31f4:	f63f af4e 	bhi.w	3094 <SystemInit+0xac>
    31f8:	4a3c      	ldr	r2, [pc, #240]	; (32ec <SystemInit+0x304>)
    31fa:	5cd2      	ldrb	r2, [r2, r3]
    31fc:	b122      	cbz	r2, 3208 <SystemInit+0x220>
    31fe:	f04f 4280 	mov.w	r2, #1073741824	; 0x40000000
    3202:	2103      	movs	r1, #3
    3204:	f8c2 15a0 	str.w	r1, [r2, #1440]	; 0x5a0
    3208:	4a39      	ldr	r2, [pc, #228]	; (32f0 <SystemInit+0x308>)
    320a:	5cd3      	ldrb	r3, [r2, r3]
    320c:	2b00      	cmp	r3, #0
    320e:	f43f af41 	beq.w	3094 <SystemInit+0xac>
    3212:	4b38      	ldr	r3, [pc, #224]	; (32f4 <SystemInit+0x30c>)
    3214:	2405      	movs	r4, #5
    3216:	2001      	movs	r0, #1
    3218:	2100      	movs	r1, #0
    321a:	223f      	movs	r2, #63	; 0x3f
    321c:	f8c3 4610 	str.w	r4, [r3, #1552]	; 0x610
    3220:	f8c3 0688 	str.w	r0, [r3, #1672]	; 0x688
    3224:	f8c3 1618 	str.w	r1, [r3, #1560]	; 0x618
    3228:	f8c3 2614 	str.w	r2, [r3, #1556]	; 0x614
    322c:	e732      	b.n	3094 <SystemInit+0xac>
    322e:	f8d3 3fe8 	ldr.w	r3, [r3, #4072]	; 0xfe8
    3232:	f3c3 1303 	ubfx	r3, r3, #4, #4
    3236:	3b03      	subs	r3, #3
    3238:	2b03      	cmp	r3, #3
    323a:	f63f af0f 	bhi.w	305c <SystemInit+0x74>
    323e:	4a2e      	ldr	r2, [pc, #184]	; (32f8 <SystemInit+0x310>)
    3240:	5cd3      	ldrb	r3, [r2, r3]
    3242:	2b00      	cmp	r3, #0
    3244:	f43f af0a 	beq.w	305c <SystemInit+0x74>
    3248:	4a23      	ldr	r2, [pc, #140]	; (32d8 <SystemInit+0x2f0>)
    324a:	f8d2 30fc 	ldr.w	r3, [r2, #252]	; 0xfc
    324e:	f023 7380 	bic.w	r3, r3, #16777216	; 0x1000000
    3252:	f8c2 30fc 	str.w	r3, [r2, #252]	; 0xfc
    3256:	e701      	b.n	305c <SystemInit+0x74>
    3258:	f8d3 3fe8 	ldr.w	r3, [r3, #4072]	; 0xfe8
    325c:	f3c3 1303 	ubfx	r3, r3, #4, #4
    3260:	3b03      	subs	r3, #3
    3262:	2b03      	cmp	r3, #3
    3264:	f63f aedd 	bhi.w	3022 <SystemInit+0x3a>
    3268:	4a24      	ldr	r2, [pc, #144]	; (32fc <SystemInit+0x314>)
    326a:	5cd3      	ldrb	r3, [r2, r3]
    326c:	2b00      	cmp	r3, #0
    326e:	f43f aed8 	beq.w	3022 <SystemInit+0x3a>
    3272:	4b23      	ldr	r3, [pc, #140]	; (3300 <SystemInit+0x318>)
    3274:	4a23      	ldr	r2, [pc, #140]	; (3304 <SystemInit+0x31c>)
    3276:	675a      	str	r2, [r3, #116]	; 0x74
    3278:	e6d3      	b.n	3022 <SystemInit+0x3a>
    327a:	4a23      	ldr	r2, [pc, #140]	; (3308 <SystemInit+0x320>)
    327c:	5cd3      	ldrb	r3, [r2, r3]
    327e:	2b00      	cmp	r3, #0
    3280:	f43f af12 	beq.w	30a8 <SystemInit+0xc0>
    3284:	e7a8      	b.n	31d8 <SystemInit+0x1f0>
    3286:	4921      	ldr	r1, [pc, #132]	; (330c <SystemInit+0x324>)
    3288:	5c8a      	ldrb	r2, [r1, r2]
    328a:	2a00      	cmp	r2, #0
    328c:	d080      	beq.n	3190 <SystemInit+0x1a8>
    328e:	e736      	b.n	30fe <SystemInit+0x116>
    3290:	f04f 4370 	mov.w	r3, #4026531840	; 0xf0000000
    3294:	f893 3fe0 	ldrb.w	r3, [r3, #4064]	; 0xfe0
    3298:	2b06      	cmp	r3, #6
    329a:	f47f af05 	bne.w	30a8 <SystemInit+0xc0>
    329e:	f8d1 3400 	ldr.w	r3, [r1, #1024]	; 0x400
    32a2:	07db      	lsls	r3, r3, #31
    32a4:	f57f af00 	bpl.w	30a8 <SystemInit+0xc0>
    32a8:	f04f 5380 	mov.w	r3, #268435456	; 0x10000000
    32ac:	f04f 4280 	mov.w	r2, #1073741824	; 0x40000000
    32b0:	f8d3 3130 	ldr.w	r3, [r3, #304]	; 0x130
    32b4:	f06f 0101 	mvn.w	r1, #1
    32b8:	2b06      	cmp	r3, #6
    32ba:	f8c2 1400 	str.w	r1, [r2, #1024]	; 0x400
    32be:	f47f aef3 	bne.w	30a8 <SystemInit+0xc0>
    32c2:	f04f 5380 	mov.w	r3, #268435456	; 0x10000000
    32c6:	f8d3 3134 	ldr.w	r3, [r3, #308]	; 0x134
    32ca:	3b03      	subs	r3, #3
    32cc:	2b03      	cmp	r3, #3
    32ce:	d883      	bhi.n	31d8 <SystemInit+0x1f0>
    32d0:	e7d3      	b.n	327a <SystemInit+0x292>
    32d2:	bf00      	nop
    32d4:	40013000 	.word	0x40013000
    32d8:	e000ed00 	.word	0xe000ed00
    32dc:	2000001c 	.word	0x2000001c
    32e0:	03d09000 	.word	0x03d09000
    32e4:	4000c000 	.word	0x4000c000
    32e8:	40001000 	.word	0x40001000
    32ec:	00006b34 	.word	0x00006b34
    32f0:	00006b34 	.word	0x00006b34
    32f4:	40005000 	.word	0x40005000
    32f8:	00006b34 	.word	0x00006b34
    32fc:	00006b34 	.word	0x00006b34
    3300:	4007c000 	.word	0x4007c000
    3304:	baadf00d 	.word	0xbaadf00d
    3308:	00006b30 	.word	0x00006b30
    330c:	00006b2c 	.word	0x00006b2c
    3310:	4a18      	ldr	r2, [pc, #96]	; (3374 <SystemInit+0x38c>)
    3312:	2301      	movs	r3, #1
    3314:	f8c2 3504 	str.w	r3, [r2, #1284]	; 0x504
    3318:	f8d2 3400 	ldr.w	r3, [r2, #1024]	; 0x400
    331c:	2b00      	cmp	r3, #0
    331e:	d0fb      	beq.n	3318 <SystemInit+0x330>
    3320:	f04f 2310 	mov.w	r3, #268439552	; 0x10001000
    3324:	2115      	movs	r1, #21
    3326:	4a13      	ldr	r2, [pc, #76]	; (3374 <SystemInit+0x38c>)
    3328:	f8c3 1200 	str.w	r1, [r3, #512]	; 0x200
    332c:	f8d2 3400 	ldr.w	r3, [r2, #1024]	; 0x400
    3330:	2b00      	cmp	r3, #0
    3332:	d0fb      	beq.n	332c <SystemInit+0x344>
    3334:	f04f 2310 	mov.w	r3, #268439552	; 0x10001000
    3338:	2115      	movs	r1, #21
    333a:	4a0e      	ldr	r2, [pc, #56]	; (3374 <SystemInit+0x38c>)
    333c:	f8c3 1204 	str.w	r1, [r3, #516]	; 0x204
    3340:	f8d2 3400 	ldr.w	r3, [r2, #1024]	; 0x400
    3344:	2b00      	cmp	r3, #0
    3346:	d0fb      	beq.n	3340 <SystemInit+0x358>
    3348:	2300      	movs	r3, #0
    334a:	490a      	ldr	r1, [pc, #40]	; (3374 <SystemInit+0x38c>)
    334c:	f8c2 3504 	str.w	r3, [r2, #1284]	; 0x504
    3350:	f8d1 3400 	ldr.w	r3, [r1, #1024]	; 0x400
    3354:	2b00      	cmp	r3, #0
    3356:	d0fb      	beq.n	3350 <SystemInit+0x368>
    3358:	f3bf 8f4f 	dsb	sy
    335c:	4906      	ldr	r1, [pc, #24]	; (3378 <SystemInit+0x390>)
    335e:	4b07      	ldr	r3, [pc, #28]	; (337c <SystemInit+0x394>)
    3360:	68ca      	ldr	r2, [r1, #12]
    3362:	f402 62e0 	and.w	r2, r2, #1792	; 0x700
    3366:	4313      	orrs	r3, r2
    3368:	60cb      	str	r3, [r1, #12]
    336a:	f3bf 8f4f 	dsb	sy
    336e:	bf00      	nop
    3370:	e7fd      	b.n	336e <SystemInit+0x386>
    3372:	bf00      	nop
    3374:	4001e000 	.word	0x4001e000
    3378:	e000ed00 	.word	0xe000ed00
    337c:	05fa0004 	.word	0x05fa0004

00003380 <uarte_evt_handler>:
    3380:	b530      	push	{r4, r5, lr}
    3382:	4b0a      	ldr	r3, [pc, #40]	; (33ac <uarte_evt_handler+0x2c>)
    3384:	4c0a      	ldr	r4, [pc, #40]	; (33b0 <uarte_evt_handler+0x30>)
    3386:	f853 3021 	ldr.w	r3, [r3, r1, lsl #2]
    338a:	f854 1021 	ldr.w	r1, [r4, r1, lsl #2]
    338e:	7802      	ldrb	r2, [r0, #0]
    3390:	b085      	sub	sp, #20
    3392:	e9d0 5401 	ldrd	r5, r4, [r0, #4]
    3396:	f88d 2000 	strb.w	r2, [sp]
    339a:	68c2      	ldr	r2, [r0, #12]
    339c:	9501      	str	r5, [sp, #4]
    339e:	f88d 4008 	strb.w	r4, [sp, #8]
    33a2:	9203      	str	r2, [sp, #12]
    33a4:	4668      	mov	r0, sp
    33a6:	4798      	blx	r3
    33a8:	b005      	add	sp, #20
    33aa:	bd30      	pop	{r4, r5, pc}
    33ac:	200008a8 	.word	0x200008a8
    33b0:	200008a4 	.word	0x200008a4

000033b4 <uart_evt_handler>:
    33b4:	b530      	push	{r4, r5, lr}
    33b6:	4b0a      	ldr	r3, [pc, #40]	; (33e0 <uart_evt_handler+0x2c>)
    33b8:	4c0a      	ldr	r4, [pc, #40]	; (33e4 <uart_evt_handler+0x30>)
    33ba:	f853 3021 	ldr.w	r3, [r3, r1, lsl #2]
    33be:	f854 1021 	ldr.w	r1, [r4, r1, lsl #2]
    33c2:	7802      	ldrb	r2, [r0, #0]
    33c4:	b085      	sub	sp, #20
    33c6:	e9d0 5401 	ldrd	r5, r4, [r0, #4]
    33ca:	f88d 2000 	strb.w	r2, [sp]
    33ce:	68c2      	ldr	r2, [r0, #12]
    33d0:	9501      	str	r5, [sp, #4]
    33d2:	f88d 4008 	strb.w	r4, [sp, #8]
    33d6:	9203      	str	r2, [sp, #12]
    33d8:	4668      	mov	r0, sp
    33da:	4798      	blx	r3
    33dc:	b005      	add	sp, #20
    33de:	bd30      	pop	{r4, r5, pc}
    33e0:	200008a8 	.word	0x200008a8
    33e4:	200008a4 	.word	0x200008a4

000033e8 <nrf_drv_uart_init>:
    33e8:	b5f0      	push	{r4, r5, r6, r7, lr}
    33ea:	4b17      	ldr	r3, [pc, #92]	; (3448 <nrf_drv_uart_init+0x60>)
    33ec:	7806      	ldrb	r6, [r0, #0]
    33ee:	7f4f      	ldrb	r7, [r1, #29]
    33f0:	f843 2026 	str.w	r2, [r3, r6, lsl #2]
    33f4:	4614      	mov	r4, r2
    33f6:	4b15      	ldr	r3, [pc, #84]	; (344c <nrf_drv_uart_init+0x64>)
    33f8:	4a15      	ldr	r2, [pc, #84]	; (3450 <nrf_drv_uart_init+0x68>)
    33fa:	559f      	strb	r7, [r3, r6]
    33fc:	4605      	mov	r5, r0
    33fe:	6908      	ldr	r0, [r1, #16]
    3400:	f842 0026 	str.w	r0, [r2, r6, lsl #2]
    3404:	468c      	mov	ip, r1
    3406:	e8bc 000f 	ldmia.w	ip!, {r0, r1, r2, r3}
    340a:	b089      	sub	sp, #36	; 0x24
    340c:	46ee      	mov	lr, sp
    340e:	e8ae 000f 	stmia.w	lr!, {r0, r1, r2, r3}
    3412:	e89c 000f 	ldmia.w	ip, {r0, r1, r2, r3}
    3416:	e88e 000f 	stmia.w	lr, {r0, r1, r2, r3}
    341a:	9604      	str	r6, [sp, #16]
    341c:	b14f      	cbz	r7, 3432 <nrf_drv_uart_init+0x4a>
    341e:	2c00      	cmp	r4, #0
    3420:	4a0c      	ldr	r2, [pc, #48]	; (3454 <nrf_drv_uart_init+0x6c>)
    3422:	4669      	mov	r1, sp
    3424:	bf08      	it	eq
    3426:	4622      	moveq	r2, r4
    3428:	1d28      	adds	r0, r5, #4
    342a:	f7fe fc6d 	bl	1d08 <nrfx_uarte_init>
    342e:	b009      	add	sp, #36	; 0x24
    3430:	bdf0      	pop	{r4, r5, r6, r7, pc}
    3432:	2c00      	cmp	r4, #0
    3434:	4a08      	ldr	r2, [pc, #32]	; (3458 <nrf_drv_uart_init+0x70>)
    3436:	4669      	mov	r1, sp
    3438:	bf08      	it	eq
    343a:	4622      	moveq	r2, r4
    343c:	f105 000c 	add.w	r0, r5, #12
    3440:	f7fe f9fe 	bl	1840 <nrfx_uart_init>
    3444:	b009      	add	sp, #36	; 0x24
    3446:	bdf0      	pop	{r4, r5, r6, r7, pc}
    3448:	200008a8 	.word	0x200008a8
    344c:	200008ac 	.word	0x200008ac
    3450:	200008a4 	.word	0x200008a4
    3454:	00003381 	.word	0x00003381
    3458:	000033b5 	.word	0x000033b5

0000345c <exit>:
    345c:	b508      	push	{r3, lr}
    345e:	4b07      	ldr	r3, [pc, #28]	; (347c <exit+0x20>)
    3460:	4604      	mov	r4, r0
    3462:	b113      	cbz	r3, 346a <exit+0xe>
    3464:	2100      	movs	r1, #0
    3466:	f3af 8000 	nop.w
    346a:	4b05      	ldr	r3, [pc, #20]	; (3480 <exit+0x24>)
    346c:	6818      	ldr	r0, [r3, #0]
    346e:	6a83      	ldr	r3, [r0, #40]	; 0x28
    3470:	b103      	cbz	r3, 3474 <exit+0x18>
    3472:	4798      	blx	r3
    3474:	4620      	mov	r0, r4
    3476:	f002 fdf1 	bl	605c <_exit>
    347a:	bf00      	nop
    347c:	00000000 	.word	0x00000000
    3480:	00006c3c 	.word	0x00006c3c

00003484 <__libc_init_array>:
    3484:	b570      	push	{r4, r5, r6, lr}
    3486:	4d0d      	ldr	r5, [pc, #52]	; (34bc <__libc_init_array+0x38>)
    3488:	4c0d      	ldr	r4, [pc, #52]	; (34c0 <__libc_init_array+0x3c>)
    348a:	1b64      	subs	r4, r4, r5
    348c:	10a4      	asrs	r4, r4, #2
    348e:	2600      	movs	r6, #0
    3490:	42a6      	cmp	r6, r4
    3492:	d109      	bne.n	34a8 <__libc_init_array+0x24>
    3494:	4d0b      	ldr	r5, [pc, #44]	; (34c4 <__libc_init_array+0x40>)
    3496:	4c0c      	ldr	r4, [pc, #48]	; (34c8 <__libc_init_array+0x44>)
    3498:	f003 fa76 	bl	6988 <_init>
    349c:	1b64      	subs	r4, r4, r5
    349e:	10a4      	asrs	r4, r4, #2
    34a0:	2600      	movs	r6, #0
    34a2:	42a6      	cmp	r6, r4
    34a4:	d105      	bne.n	34b2 <__libc_init_array+0x2e>
    34a6:	bd70      	pop	{r4, r5, r6, pc}
    34a8:	f855 3b04 	ldr.w	r3, [r5], #4
    34ac:	4798      	blx	r3
    34ae:	3601      	adds	r6, #1
    34b0:	e7ee      	b.n	3490 <__libc_init_array+0xc>
    34b2:	f855 3b04 	ldr.w	r3, [r5], #4
    34b6:	4798      	blx	r3
    34b8:	3601      	adds	r6, #1
    34ba:	e7f2      	b.n	34a2 <__libc_init_array+0x1e>
    34bc:	200001f0 	.word	0x200001f0
    34c0:	200001f0 	.word	0x200001f0
    34c4:	200001f0 	.word	0x200001f0
    34c8:	200001f4 	.word	0x200001f4

000034cc <memcpy>:
    34cc:	440a      	add	r2, r1
    34ce:	4291      	cmp	r1, r2
    34d0:	f100 33ff 	add.w	r3, r0, #4294967295	; 0xffffffff
    34d4:	d100      	bne.n	34d8 <memcpy+0xc>
    34d6:	4770      	bx	lr
    34d8:	b510      	push	{r4, lr}
    34da:	f811 4b01 	ldrb.w	r4, [r1], #1
    34de:	f803 4f01 	strb.w	r4, [r3, #1]!
    34e2:	4291      	cmp	r1, r2
    34e4:	d1f9      	bne.n	34da <memcpy+0xe>
    34e6:	bd10      	pop	{r4, pc}

000034e8 <memset>:
    34e8:	4402      	add	r2, r0
    34ea:	4603      	mov	r3, r0
    34ec:	4293      	cmp	r3, r2
    34ee:	d100      	bne.n	34f2 <memset+0xa>
    34f0:	4770      	bx	lr
    34f2:	f803 1b01 	strb.w	r1, [r3], #1
    34f6:	e7f9      	b.n	34ec <memset+0x4>

000034f8 <__cvt>:
    34f8:	e92d 47ff 	stmdb	sp!, {r0, r1, r2, r3, r4, r5, r6, r7, r8, r9, sl, lr}
    34fc:	ec55 4b10 	vmov	r4, r5, d0
    3500:	2d00      	cmp	r5, #0
    3502:	460e      	mov	r6, r1
    3504:	4619      	mov	r1, r3
    3506:	462b      	mov	r3, r5
    3508:	bfbb      	ittet	lt
    350a:	f105 4300 	addlt.w	r3, r5, #2147483648	; 0x80000000
    350e:	461d      	movlt	r5, r3
    3510:	2300      	movge	r3, #0
    3512:	232d      	movlt	r3, #45	; 0x2d
    3514:	700b      	strb	r3, [r1, #0]
    3516:	9b0d      	ldr	r3, [sp, #52]	; 0x34
    3518:	f8dd a030 	ldr.w	sl, [sp, #48]	; 0x30
    351c:	4691      	mov	r9, r2
    351e:	f023 0820 	bic.w	r8, r3, #32
    3522:	bfbc      	itt	lt
    3524:	4622      	movlt	r2, r4
    3526:	4614      	movlt	r4, r2
    3528:	f1b8 0f46 	cmp.w	r8, #70	; 0x46
    352c:	d005      	beq.n	353a <__cvt+0x42>
    352e:	f1b8 0f45 	cmp.w	r8, #69	; 0x45
    3532:	d100      	bne.n	3536 <__cvt+0x3e>
    3534:	3601      	adds	r6, #1
    3536:	2102      	movs	r1, #2
    3538:	e000      	b.n	353c <__cvt+0x44>
    353a:	2103      	movs	r1, #3
    353c:	ab03      	add	r3, sp, #12
    353e:	9301      	str	r3, [sp, #4]
    3540:	ab02      	add	r3, sp, #8
    3542:	9300      	str	r3, [sp, #0]
    3544:	ec45 4b10 	vmov	d0, r4, r5
    3548:	4653      	mov	r3, sl
    354a:	4632      	mov	r2, r6
    354c:	f000 fcd4 	bl	3ef8 <_dtoa_r>
    3550:	f1b8 0f47 	cmp.w	r8, #71	; 0x47
    3554:	4607      	mov	r7, r0
    3556:	d102      	bne.n	355e <__cvt+0x66>
    3558:	f019 0f01 	tst.w	r9, #1
    355c:	d022      	beq.n	35a4 <__cvt+0xac>
    355e:	f1b8 0f46 	cmp.w	r8, #70	; 0x46
    3562:	eb07 0906 	add.w	r9, r7, r6
    3566:	d110      	bne.n	358a <__cvt+0x92>
    3568:	783b      	ldrb	r3, [r7, #0]
    356a:	2b30      	cmp	r3, #48	; 0x30
    356c:	d10a      	bne.n	3584 <__cvt+0x8c>
    356e:	2200      	movs	r2, #0
    3570:	2300      	movs	r3, #0
    3572:	4620      	mov	r0, r4
    3574:	4629      	mov	r1, r5
    3576:	f003 f997 	bl	68a8 <__aeabi_dcmpeq>
    357a:	b918      	cbnz	r0, 3584 <__cvt+0x8c>
    357c:	f1c6 0601 	rsb	r6, r6, #1
    3580:	f8ca 6000 	str.w	r6, [sl]
    3584:	f8da 3000 	ldr.w	r3, [sl]
    3588:	4499      	add	r9, r3
    358a:	2200      	movs	r2, #0
    358c:	2300      	movs	r3, #0
    358e:	4620      	mov	r0, r4
    3590:	4629      	mov	r1, r5
    3592:	f003 f989 	bl	68a8 <__aeabi_dcmpeq>
    3596:	b108      	cbz	r0, 359c <__cvt+0xa4>
    3598:	f8cd 900c 	str.w	r9, [sp, #12]
    359c:	2230      	movs	r2, #48	; 0x30
    359e:	9b03      	ldr	r3, [sp, #12]
    35a0:	454b      	cmp	r3, r9
    35a2:	d307      	bcc.n	35b4 <__cvt+0xbc>
    35a4:	9b03      	ldr	r3, [sp, #12]
    35a6:	9a0e      	ldr	r2, [sp, #56]	; 0x38
    35a8:	1bdb      	subs	r3, r3, r7
    35aa:	4638      	mov	r0, r7
    35ac:	6013      	str	r3, [r2, #0]
    35ae:	b004      	add	sp, #16
    35b0:	e8bd 87f0 	ldmia.w	sp!, {r4, r5, r6, r7, r8, r9, sl, pc}
    35b4:	1c59      	adds	r1, r3, #1
    35b6:	9103      	str	r1, [sp, #12]
    35b8:	701a      	strb	r2, [r3, #0]
    35ba:	e7f0      	b.n	359e <__cvt+0xa6>

000035bc <__exponent>:
    35bc:	b5f7      	push	{r0, r1, r2, r4, r5, r6, r7, lr}
    35be:	4603      	mov	r3, r0
    35c0:	2900      	cmp	r1, #0
    35c2:	bfb8      	it	lt
    35c4:	4249      	neglt	r1, r1
    35c6:	f803 2b02 	strb.w	r2, [r3], #2
    35ca:	bfb4      	ite	lt
    35cc:	222d      	movlt	r2, #45	; 0x2d
    35ce:	222b      	movge	r2, #43	; 0x2b
    35d0:	2909      	cmp	r1, #9
    35d2:	7042      	strb	r2, [r0, #1]
    35d4:	dd2a      	ble.n	362c <__exponent+0x70>
    35d6:	f10d 0407 	add.w	r4, sp, #7
    35da:	46a4      	mov	ip, r4
    35dc:	270a      	movs	r7, #10
    35de:	46a6      	mov	lr, r4
    35e0:	460a      	mov	r2, r1
    35e2:	fb91 f6f7 	sdiv	r6, r1, r7
    35e6:	fb07 1516 	mls	r5, r7, r6, r1
    35ea:	3530      	adds	r5, #48	; 0x30
    35ec:	2a63      	cmp	r2, #99	; 0x63
    35ee:	f104 34ff 	add.w	r4, r4, #4294967295	; 0xffffffff
    35f2:	f80e 5c01 	strb.w	r5, [lr, #-1]
    35f6:	4631      	mov	r1, r6
    35f8:	dcf1      	bgt.n	35de <__exponent+0x22>
    35fa:	3130      	adds	r1, #48	; 0x30
    35fc:	f1ae 0502 	sub.w	r5, lr, #2
    3600:	f804 1c01 	strb.w	r1, [r4, #-1]
    3604:	1c44      	adds	r4, r0, #1
    3606:	4629      	mov	r1, r5
    3608:	4561      	cmp	r1, ip
    360a:	d30a      	bcc.n	3622 <__exponent+0x66>
    360c:	f10d 0209 	add.w	r2, sp, #9
    3610:	eba2 020e 	sub.w	r2, r2, lr
    3614:	4565      	cmp	r5, ip
    3616:	bf88      	it	hi
    3618:	2200      	movhi	r2, #0
    361a:	4413      	add	r3, r2
    361c:	1a18      	subs	r0, r3, r0
    361e:	b003      	add	sp, #12
    3620:	bdf0      	pop	{r4, r5, r6, r7, pc}
    3622:	f811 2b01 	ldrb.w	r2, [r1], #1
    3626:	f804 2f01 	strb.w	r2, [r4, #1]!
    362a:	e7ed      	b.n	3608 <__exponent+0x4c>
    362c:	2330      	movs	r3, #48	; 0x30
    362e:	3130      	adds	r1, #48	; 0x30
    3630:	7083      	strb	r3, [r0, #2]
    3632:	70c1      	strb	r1, [r0, #3]
    3634:	1d03      	adds	r3, r0, #4
    3636:	e7f1      	b.n	361c <__exponent+0x60>

00003638 <_printf_float>:
    3638:	e92d 4ff0 	stmdb	sp!, {r4, r5, r6, r7, r8, r9, sl, fp, lr}
    363c:	ed2d 8b02 	vpush	{d8}
    3640:	b08d      	sub	sp, #52	; 0x34
    3642:	460c      	mov	r4, r1
    3644:	f8dd 8060 	ldr.w	r8, [sp, #96]	; 0x60
    3648:	4616      	mov	r6, r2
    364a:	461f      	mov	r7, r3
    364c:	4605      	mov	r5, r0
    364e:	f001 fa41 	bl	4ad4 <_localeconv_r>
    3652:	f8d0 a000 	ldr.w	sl, [r0]
    3656:	4650      	mov	r0, sl
    3658:	f000 fbb8 	bl	3dcc <strlen>
    365c:	2300      	movs	r3, #0
    365e:	930a      	str	r3, [sp, #40]	; 0x28
    3660:	6823      	ldr	r3, [r4, #0]
    3662:	9305      	str	r3, [sp, #20]
    3664:	f8d8 3000 	ldr.w	r3, [r8]
    3668:	f894 b018 	ldrb.w	fp, [r4, #24]
    366c:	3307      	adds	r3, #7
    366e:	f023 0307 	bic.w	r3, r3, #7
    3672:	f103 0208 	add.w	r2, r3, #8
    3676:	f8c8 2000 	str.w	r2, [r8]
    367a:	e9d3 2300 	ldrd	r2, r3, [r3]
    367e:	e9c4 2312 	strd	r2, r3, [r4, #72]	; 0x48
    3682:	e9d4 8912 	ldrd	r8, r9, [r4, #72]	; 0x48
    3686:	f029 4300 	bic.w	r3, r9, #2147483648	; 0x80000000
    368a:	9307      	str	r3, [sp, #28]
    368c:	f8cd 8018 	str.w	r8, [sp, #24]
    3690:	ee08 0a10 	vmov	s16, r0
    3694:	4b9f      	ldr	r3, [pc, #636]	; (3914 <_printf_float+0x2dc>)
    3696:	e9dd 0106 	ldrd	r0, r1, [sp, #24]
    369a:	f04f 32ff 	mov.w	r2, #4294967295	; 0xffffffff
    369e:	f003 f935 	bl	690c <__aeabi_dcmpun>
    36a2:	bb88      	cbnz	r0, 3708 <_printf_float+0xd0>
    36a4:	e9dd 0106 	ldrd	r0, r1, [sp, #24]
    36a8:	4b9a      	ldr	r3, [pc, #616]	; (3914 <_printf_float+0x2dc>)
    36aa:	f04f 32ff 	mov.w	r2, #4294967295	; 0xffffffff
    36ae:	f003 f90f 	bl	68d0 <__aeabi_dcmple>
    36b2:	bb48      	cbnz	r0, 3708 <_printf_float+0xd0>
    36b4:	2200      	movs	r2, #0
    36b6:	2300      	movs	r3, #0
    36b8:	4640      	mov	r0, r8
    36ba:	4649      	mov	r1, r9
    36bc:	f003 f8fe 	bl	68bc <__aeabi_dcmplt>
    36c0:	b110      	cbz	r0, 36c8 <_printf_float+0x90>
    36c2:	232d      	movs	r3, #45	; 0x2d
    36c4:	f884 3043 	strb.w	r3, [r4, #67]	; 0x43
    36c8:	4b93      	ldr	r3, [pc, #588]	; (3918 <_printf_float+0x2e0>)
    36ca:	4894      	ldr	r0, [pc, #592]	; (391c <_printf_float+0x2e4>)
    36cc:	f1bb 0f47 	cmp.w	fp, #71	; 0x47
    36d0:	bf94      	ite	ls
    36d2:	4698      	movls	r8, r3
    36d4:	4680      	movhi	r8, r0
    36d6:	2303      	movs	r3, #3
    36d8:	6123      	str	r3, [r4, #16]
    36da:	9b05      	ldr	r3, [sp, #20]
    36dc:	f023 0204 	bic.w	r2, r3, #4
    36e0:	6022      	str	r2, [r4, #0]
    36e2:	f04f 0900 	mov.w	r9, #0
    36e6:	9700      	str	r7, [sp, #0]
    36e8:	4633      	mov	r3, r6
    36ea:	aa0b      	add	r2, sp, #44	; 0x2c
    36ec:	4621      	mov	r1, r4
    36ee:	4628      	mov	r0, r5
    36f0:	f000 f9d8 	bl	3aa4 <_printf_common>
    36f4:	3001      	adds	r0, #1
    36f6:	f040 8090 	bne.w	381a <_printf_float+0x1e2>
    36fa:	f04f 30ff 	mov.w	r0, #4294967295	; 0xffffffff
    36fe:	b00d      	add	sp, #52	; 0x34
    3700:	ecbd 8b02 	vpop	{d8}
    3704:	e8bd 8ff0 	ldmia.w	sp!, {r4, r5, r6, r7, r8, r9, sl, fp, pc}
    3708:	4642      	mov	r2, r8
    370a:	464b      	mov	r3, r9
    370c:	4640      	mov	r0, r8
    370e:	4649      	mov	r1, r9
    3710:	f003 f8fc 	bl	690c <__aeabi_dcmpun>
    3714:	b140      	cbz	r0, 3728 <_printf_float+0xf0>
    3716:	464b      	mov	r3, r9
    3718:	2b00      	cmp	r3, #0
    371a:	bfbc      	itt	lt
    371c:	232d      	movlt	r3, #45	; 0x2d
    371e:	f884 3043 	strblt.w	r3, [r4, #67]	; 0x43
    3722:	487f      	ldr	r0, [pc, #508]	; (3920 <_printf_float+0x2e8>)
    3724:	4b7f      	ldr	r3, [pc, #508]	; (3924 <_printf_float+0x2ec>)
    3726:	e7d1      	b.n	36cc <_printf_float+0x94>
    3728:	6863      	ldr	r3, [r4, #4]
    372a:	f00b 02df 	and.w	r2, fp, #223	; 0xdf
    372e:	9206      	str	r2, [sp, #24]
    3730:	1c5a      	adds	r2, r3, #1
    3732:	d13f      	bne.n	37b4 <_printf_float+0x17c>
    3734:	2306      	movs	r3, #6
    3736:	6063      	str	r3, [r4, #4]
    3738:	9b05      	ldr	r3, [sp, #20]
    373a:	6861      	ldr	r1, [r4, #4]
    373c:	f443 6280 	orr.w	r2, r3, #1024	; 0x400
    3740:	2300      	movs	r3, #0
    3742:	9303      	str	r3, [sp, #12]
    3744:	ab0a      	add	r3, sp, #40	; 0x28
    3746:	e9cd b301 	strd	fp, r3, [sp, #4]
    374a:	ab09      	add	r3, sp, #36	; 0x24
    374c:	ec49 8b10 	vmov	d0, r8, r9
    3750:	9300      	str	r3, [sp, #0]
    3752:	6022      	str	r2, [r4, #0]
    3754:	f10d 0323 	add.w	r3, sp, #35	; 0x23
    3758:	4628      	mov	r0, r5
    375a:	f7ff fecd 	bl	34f8 <__cvt>
    375e:	9b06      	ldr	r3, [sp, #24]
    3760:	9909      	ldr	r1, [sp, #36]	; 0x24
    3762:	2b47      	cmp	r3, #71	; 0x47
    3764:	4680      	mov	r8, r0
    3766:	d108      	bne.n	377a <_printf_float+0x142>
    3768:	1cc8      	adds	r0, r1, #3
    376a:	db02      	blt.n	3772 <_printf_float+0x13a>
    376c:	6863      	ldr	r3, [r4, #4]
    376e:	4299      	cmp	r1, r3
    3770:	dd41      	ble.n	37f6 <_printf_float+0x1be>
    3772:	f1ab 0b02 	sub.w	fp, fp, #2
    3776:	fa5f fb8b 	uxtb.w	fp, fp
    377a:	f1bb 0f65 	cmp.w	fp, #101	; 0x65
    377e:	d820      	bhi.n	37c2 <_printf_float+0x18a>
    3780:	3901      	subs	r1, #1
    3782:	465a      	mov	r2, fp
    3784:	f104 0050 	add.w	r0, r4, #80	; 0x50
    3788:	9109      	str	r1, [sp, #36]	; 0x24
    378a:	f7ff ff17 	bl	35bc <__exponent>
    378e:	9a0a      	ldr	r2, [sp, #40]	; 0x28
    3790:	1813      	adds	r3, r2, r0
    3792:	2a01      	cmp	r2, #1
    3794:	4681      	mov	r9, r0
    3796:	6123      	str	r3, [r4, #16]
    3798:	dc02      	bgt.n	37a0 <_printf_float+0x168>
    379a:	6822      	ldr	r2, [r4, #0]
    379c:	07d2      	lsls	r2, r2, #31
    379e:	d501      	bpl.n	37a4 <_printf_float+0x16c>
    37a0:	3301      	adds	r3, #1
    37a2:	6123      	str	r3, [r4, #16]
    37a4:	f89d 3023 	ldrb.w	r3, [sp, #35]	; 0x23
    37a8:	2b00      	cmp	r3, #0
    37aa:	d09c      	beq.n	36e6 <_printf_float+0xae>
    37ac:	232d      	movs	r3, #45	; 0x2d
    37ae:	f884 3043 	strb.w	r3, [r4, #67]	; 0x43
    37b2:	e798      	b.n	36e6 <_printf_float+0xae>
    37b4:	9a06      	ldr	r2, [sp, #24]
    37b6:	2a47      	cmp	r2, #71	; 0x47
    37b8:	d1be      	bne.n	3738 <_printf_float+0x100>
    37ba:	2b00      	cmp	r3, #0
    37bc:	d1bc      	bne.n	3738 <_printf_float+0x100>
    37be:	2301      	movs	r3, #1
    37c0:	e7b9      	b.n	3736 <_printf_float+0xfe>
    37c2:	f1bb 0f66 	cmp.w	fp, #102	; 0x66
    37c6:	d118      	bne.n	37fa <_printf_float+0x1c2>
    37c8:	2900      	cmp	r1, #0
    37ca:	6863      	ldr	r3, [r4, #4]
    37cc:	dd0b      	ble.n	37e6 <_printf_float+0x1ae>
    37ce:	6121      	str	r1, [r4, #16]
    37d0:	b913      	cbnz	r3, 37d8 <_printf_float+0x1a0>
    37d2:	6822      	ldr	r2, [r4, #0]
    37d4:	07d0      	lsls	r0, r2, #31
    37d6:	d502      	bpl.n	37de <_printf_float+0x1a6>
    37d8:	3301      	adds	r3, #1
    37da:	440b      	add	r3, r1
    37dc:	6123      	str	r3, [r4, #16]
    37de:	65a1      	str	r1, [r4, #88]	; 0x58
    37e0:	f04f 0900 	mov.w	r9, #0
    37e4:	e7de      	b.n	37a4 <_printf_float+0x16c>
    37e6:	b913      	cbnz	r3, 37ee <_printf_float+0x1b6>
    37e8:	6822      	ldr	r2, [r4, #0]
    37ea:	07d2      	lsls	r2, r2, #31
    37ec:	d501      	bpl.n	37f2 <_printf_float+0x1ba>
    37ee:	3302      	adds	r3, #2
    37f0:	e7f4      	b.n	37dc <_printf_float+0x1a4>
    37f2:	2301      	movs	r3, #1
    37f4:	e7f2      	b.n	37dc <_printf_float+0x1a4>
    37f6:	f04f 0b67 	mov.w	fp, #103	; 0x67
    37fa:	9b0a      	ldr	r3, [sp, #40]	; 0x28
    37fc:	4299      	cmp	r1, r3
    37fe:	db05      	blt.n	380c <_printf_float+0x1d4>
    3800:	6823      	ldr	r3, [r4, #0]
    3802:	6121      	str	r1, [r4, #16]
    3804:	07d8      	lsls	r0, r3, #31
    3806:	d5ea      	bpl.n	37de <_printf_float+0x1a6>
    3808:	1c4b      	adds	r3, r1, #1
    380a:	e7e7      	b.n	37dc <_printf_float+0x1a4>
    380c:	2900      	cmp	r1, #0
    380e:	bfd4      	ite	le
    3810:	f1c1 0202 	rsble	r2, r1, #2
    3814:	2201      	movgt	r2, #1
    3816:	4413      	add	r3, r2
    3818:	e7e0      	b.n	37dc <_printf_float+0x1a4>
    381a:	6823      	ldr	r3, [r4, #0]
    381c:	055a      	lsls	r2, r3, #21
    381e:	d407      	bmi.n	3830 <_printf_float+0x1f8>
    3820:	6923      	ldr	r3, [r4, #16]
    3822:	4642      	mov	r2, r8
    3824:	4631      	mov	r1, r6
    3826:	4628      	mov	r0, r5
    3828:	47b8      	blx	r7
    382a:	3001      	adds	r0, #1
    382c:	d12c      	bne.n	3888 <_printf_float+0x250>
    382e:	e764      	b.n	36fa <_printf_float+0xc2>
    3830:	f1bb 0f65 	cmp.w	fp, #101	; 0x65
    3834:	f240 80e0 	bls.w	39f8 <_printf_float+0x3c0>
    3838:	e9d4 0112 	ldrd	r0, r1, [r4, #72]	; 0x48
    383c:	2200      	movs	r2, #0
    383e:	2300      	movs	r3, #0
    3840:	f003 f832 	bl	68a8 <__aeabi_dcmpeq>
    3844:	2800      	cmp	r0, #0
    3846:	d034      	beq.n	38b2 <_printf_float+0x27a>
    3848:	4a37      	ldr	r2, [pc, #220]	; (3928 <_printf_float+0x2f0>)
    384a:	2301      	movs	r3, #1
    384c:	4631      	mov	r1, r6
    384e:	4628      	mov	r0, r5
    3850:	47b8      	blx	r7
    3852:	3001      	adds	r0, #1
    3854:	f43f af51 	beq.w	36fa <_printf_float+0xc2>
    3858:	e9dd 2309 	ldrd	r2, r3, [sp, #36]	; 0x24
    385c:	429a      	cmp	r2, r3
    385e:	db02      	blt.n	3866 <_printf_float+0x22e>
    3860:	6823      	ldr	r3, [r4, #0]
    3862:	07d8      	lsls	r0, r3, #31
    3864:	d510      	bpl.n	3888 <_printf_float+0x250>
    3866:	ee18 3a10 	vmov	r3, s16
    386a:	4652      	mov	r2, sl
    386c:	4631      	mov	r1, r6
    386e:	4628      	mov	r0, r5
    3870:	47b8      	blx	r7
    3872:	3001      	adds	r0, #1
    3874:	f43f af41 	beq.w	36fa <_printf_float+0xc2>
    3878:	f04f 0800 	mov.w	r8, #0
    387c:	f104 091a 	add.w	r9, r4, #26
    3880:	9b0a      	ldr	r3, [sp, #40]	; 0x28
    3882:	3b01      	subs	r3, #1
    3884:	4543      	cmp	r3, r8
    3886:	dc09      	bgt.n	389c <_printf_float+0x264>
    3888:	6823      	ldr	r3, [r4, #0]
    388a:	079b      	lsls	r3, r3, #30
    388c:	f100 8105 	bmi.w	3a9a <_printf_float+0x462>
    3890:	68e0      	ldr	r0, [r4, #12]
    3892:	9b0b      	ldr	r3, [sp, #44]	; 0x2c
    3894:	4298      	cmp	r0, r3
    3896:	bfb8      	it	lt
    3898:	4618      	movlt	r0, r3
    389a:	e730      	b.n	36fe <_printf_float+0xc6>
    389c:	2301      	movs	r3, #1
    389e:	464a      	mov	r2, r9
    38a0:	4631      	mov	r1, r6
    38a2:	4628      	mov	r0, r5
    38a4:	47b8      	blx	r7
    38a6:	3001      	adds	r0, #1
    38a8:	f43f af27 	beq.w	36fa <_printf_float+0xc2>
    38ac:	f108 0801 	add.w	r8, r8, #1
    38b0:	e7e6      	b.n	3880 <_printf_float+0x248>
    38b2:	9b09      	ldr	r3, [sp, #36]	; 0x24
    38b4:	2b00      	cmp	r3, #0
    38b6:	dc39      	bgt.n	392c <_printf_float+0x2f4>
    38b8:	4a1b      	ldr	r2, [pc, #108]	; (3928 <_printf_float+0x2f0>)
    38ba:	2301      	movs	r3, #1
    38bc:	4631      	mov	r1, r6
    38be:	4628      	mov	r0, r5
    38c0:	47b8      	blx	r7
    38c2:	3001      	adds	r0, #1
    38c4:	f43f af19 	beq.w	36fa <_printf_float+0xc2>
    38c8:	e9dd 2309 	ldrd	r2, r3, [sp, #36]	; 0x24
    38cc:	4313      	orrs	r3, r2
    38ce:	d102      	bne.n	38d6 <_printf_float+0x29e>
    38d0:	6823      	ldr	r3, [r4, #0]
    38d2:	07d9      	lsls	r1, r3, #31
    38d4:	d5d8      	bpl.n	3888 <_printf_float+0x250>
    38d6:	ee18 3a10 	vmov	r3, s16
    38da:	4652      	mov	r2, sl
    38dc:	4631      	mov	r1, r6
    38de:	4628      	mov	r0, r5
    38e0:	47b8      	blx	r7
    38e2:	3001      	adds	r0, #1
    38e4:	f43f af09 	beq.w	36fa <_printf_float+0xc2>
    38e8:	f04f 0900 	mov.w	r9, #0
    38ec:	f104 0a1a 	add.w	sl, r4, #26
    38f0:	9b09      	ldr	r3, [sp, #36]	; 0x24
    38f2:	425b      	negs	r3, r3
    38f4:	454b      	cmp	r3, r9
    38f6:	dc01      	bgt.n	38fc <_printf_float+0x2c4>
    38f8:	9b0a      	ldr	r3, [sp, #40]	; 0x28
    38fa:	e792      	b.n	3822 <_printf_float+0x1ea>
    38fc:	2301      	movs	r3, #1
    38fe:	4652      	mov	r2, sl
    3900:	4631      	mov	r1, r6
    3902:	4628      	mov	r0, r5
    3904:	47b8      	blx	r7
    3906:	3001      	adds	r0, #1
    3908:	f43f aef7 	beq.w	36fa <_printf_float+0xc2>
    390c:	f109 0901 	add.w	r9, r9, #1
    3910:	e7ee      	b.n	38f0 <_printf_float+0x2b8>
    3912:	bf00      	nop
    3914:	7fefffff 	.word	0x7fefffff
    3918:	00006c40 	.word	0x00006c40
    391c:	00006c44 	.word	0x00006c44
    3920:	00006c4c 	.word	0x00006c4c
    3924:	00006c48 	.word	0x00006c48
    3928:	00006c50 	.word	0x00006c50
    392c:	9a0a      	ldr	r2, [sp, #40]	; 0x28
    392e:	6da3      	ldr	r3, [r4, #88]	; 0x58
    3930:	429a      	cmp	r2, r3
    3932:	bfa8      	it	ge
    3934:	461a      	movge	r2, r3
    3936:	2a00      	cmp	r2, #0
    3938:	4691      	mov	r9, r2
    393a:	dc37      	bgt.n	39ac <_printf_float+0x374>
    393c:	f04f 0b00 	mov.w	fp, #0
    3940:	ea29 79e9 	bic.w	r9, r9, r9, asr #31
    3944:	f104 021a 	add.w	r2, r4, #26
    3948:	6da3      	ldr	r3, [r4, #88]	; 0x58
    394a:	9305      	str	r3, [sp, #20]
    394c:	eba3 0309 	sub.w	r3, r3, r9
    3950:	455b      	cmp	r3, fp
    3952:	dc33      	bgt.n	39bc <_printf_float+0x384>
    3954:	e9dd 2309 	ldrd	r2, r3, [sp, #36]	; 0x24
    3958:	429a      	cmp	r2, r3
    395a:	db3b      	blt.n	39d4 <_printf_float+0x39c>
    395c:	6823      	ldr	r3, [r4, #0]
    395e:	07da      	lsls	r2, r3, #31
    3960:	d438      	bmi.n	39d4 <_printf_float+0x39c>
    3962:	9b0a      	ldr	r3, [sp, #40]	; 0x28
    3964:	9a05      	ldr	r2, [sp, #20]
    3966:	9909      	ldr	r1, [sp, #36]	; 0x24
    3968:	1a9a      	subs	r2, r3, r2
    396a:	eba3 0901 	sub.w	r9, r3, r1
    396e:	4591      	cmp	r9, r2
    3970:	bfa8      	it	ge
    3972:	4691      	movge	r9, r2
    3974:	f1b9 0f00 	cmp.w	r9, #0
    3978:	dc35      	bgt.n	39e6 <_printf_float+0x3ae>
    397a:	f04f 0800 	mov.w	r8, #0
    397e:	ea29 79e9 	bic.w	r9, r9, r9, asr #31
    3982:	f104 0a1a 	add.w	sl, r4, #26
    3986:	e9dd 2309 	ldrd	r2, r3, [sp, #36]	; 0x24
    398a:	1a9b      	subs	r3, r3, r2
    398c:	eba3 0309 	sub.w	r3, r3, r9
    3990:	4543      	cmp	r3, r8
    3992:	f77f af79 	ble.w	3888 <_printf_float+0x250>
    3996:	2301      	movs	r3, #1
    3998:	4652      	mov	r2, sl
    399a:	4631      	mov	r1, r6
    399c:	4628      	mov	r0, r5
    399e:	47b8      	blx	r7
    39a0:	3001      	adds	r0, #1
    39a2:	f43f aeaa 	beq.w	36fa <_printf_float+0xc2>
    39a6:	f108 0801 	add.w	r8, r8, #1
    39aa:	e7ec      	b.n	3986 <_printf_float+0x34e>
    39ac:	4613      	mov	r3, r2
    39ae:	4631      	mov	r1, r6
    39b0:	4642      	mov	r2, r8
    39b2:	4628      	mov	r0, r5
    39b4:	47b8      	blx	r7
    39b6:	3001      	adds	r0, #1
    39b8:	d1c0      	bne.n	393c <_printf_float+0x304>
    39ba:	e69e      	b.n	36fa <_printf_float+0xc2>
    39bc:	2301      	movs	r3, #1
    39be:	4631      	mov	r1, r6
    39c0:	4628      	mov	r0, r5
    39c2:	9205      	str	r2, [sp, #20]
    39c4:	47b8      	blx	r7
    39c6:	3001      	adds	r0, #1
    39c8:	f43f ae97 	beq.w	36fa <_printf_float+0xc2>
    39cc:	9a05      	ldr	r2, [sp, #20]
    39ce:	f10b 0b01 	add.w	fp, fp, #1
    39d2:	e7b9      	b.n	3948 <_printf_float+0x310>
    39d4:	ee18 3a10 	vmov	r3, s16
    39d8:	4652      	mov	r2, sl
    39da:	4631      	mov	r1, r6
    39dc:	4628      	mov	r0, r5
    39de:	47b8      	blx	r7
    39e0:	3001      	adds	r0, #1
    39e2:	d1be      	bne.n	3962 <_printf_float+0x32a>
    39e4:	e689      	b.n	36fa <_printf_float+0xc2>
    39e6:	9a05      	ldr	r2, [sp, #20]
    39e8:	464b      	mov	r3, r9
    39ea:	4442      	add	r2, r8
    39ec:	4631      	mov	r1, r6
    39ee:	4628      	mov	r0, r5
    39f0:	47b8      	blx	r7
    39f2:	3001      	adds	r0, #1
    39f4:	d1c1      	bne.n	397a <_printf_float+0x342>
    39f6:	e680      	b.n	36fa <_printf_float+0xc2>
    39f8:	9a0a      	ldr	r2, [sp, #40]	; 0x28
    39fa:	2a01      	cmp	r2, #1
    39fc:	dc01      	bgt.n	3a02 <_printf_float+0x3ca>
    39fe:	07db      	lsls	r3, r3, #31
    3a00:	d538      	bpl.n	3a74 <_printf_float+0x43c>
    3a02:	2301      	movs	r3, #1
    3a04:	4642      	mov	r2, r8
    3a06:	4631      	mov	r1, r6
    3a08:	4628      	mov	r0, r5
    3a0a:	47b8      	blx	r7
    3a0c:	3001      	adds	r0, #1
    3a0e:	f43f ae74 	beq.w	36fa <_printf_float+0xc2>
    3a12:	ee18 3a10 	vmov	r3, s16
    3a16:	4652      	mov	r2, sl
    3a18:	4631      	mov	r1, r6
    3a1a:	4628      	mov	r0, r5
    3a1c:	47b8      	blx	r7
    3a1e:	3001      	adds	r0, #1
    3a20:	f43f ae6b 	beq.w	36fa <_printf_float+0xc2>
    3a24:	e9d4 0112 	ldrd	r0, r1, [r4, #72]	; 0x48
    3a28:	2200      	movs	r2, #0
    3a2a:	2300      	movs	r3, #0
    3a2c:	f002 ff3c 	bl	68a8 <__aeabi_dcmpeq>
    3a30:	b9d8      	cbnz	r0, 3a6a <_printf_float+0x432>
    3a32:	9b0a      	ldr	r3, [sp, #40]	; 0x28
    3a34:	f108 0201 	add.w	r2, r8, #1
    3a38:	3b01      	subs	r3, #1
    3a3a:	4631      	mov	r1, r6
    3a3c:	4628      	mov	r0, r5
    3a3e:	47b8      	blx	r7
    3a40:	3001      	adds	r0, #1
    3a42:	d10e      	bne.n	3a62 <_printf_float+0x42a>
    3a44:	e659      	b.n	36fa <_printf_float+0xc2>
    3a46:	2301      	movs	r3, #1
    3a48:	4652      	mov	r2, sl
    3a4a:	4631      	mov	r1, r6
    3a4c:	4628      	mov	r0, r5
    3a4e:	47b8      	blx	r7
    3a50:	3001      	adds	r0, #1
    3a52:	f43f ae52 	beq.w	36fa <_printf_float+0xc2>
    3a56:	f108 0801 	add.w	r8, r8, #1
    3a5a:	9b0a      	ldr	r3, [sp, #40]	; 0x28
    3a5c:	3b01      	subs	r3, #1
    3a5e:	4543      	cmp	r3, r8
    3a60:	dcf1      	bgt.n	3a46 <_printf_float+0x40e>
    3a62:	464b      	mov	r3, r9
    3a64:	f104 0250 	add.w	r2, r4, #80	; 0x50
    3a68:	e6dc      	b.n	3824 <_printf_float+0x1ec>
    3a6a:	f04f 0800 	mov.w	r8, #0
    3a6e:	f104 0a1a 	add.w	sl, r4, #26
    3a72:	e7f2      	b.n	3a5a <_printf_float+0x422>
    3a74:	2301      	movs	r3, #1
    3a76:	4642      	mov	r2, r8
    3a78:	e7df      	b.n	3a3a <_printf_float+0x402>
    3a7a:	2301      	movs	r3, #1
    3a7c:	464a      	mov	r2, r9
    3a7e:	4631      	mov	r1, r6
    3a80:	4628      	mov	r0, r5
    3a82:	47b8      	blx	r7
    3a84:	3001      	adds	r0, #1
    3a86:	f43f ae38 	beq.w	36fa <_printf_float+0xc2>
    3a8a:	f108 0801 	add.w	r8, r8, #1
    3a8e:	68e3      	ldr	r3, [r4, #12]
    3a90:	990b      	ldr	r1, [sp, #44]	; 0x2c
    3a92:	1a5b      	subs	r3, r3, r1
    3a94:	4543      	cmp	r3, r8
    3a96:	dcf0      	bgt.n	3a7a <_printf_float+0x442>
    3a98:	e6fa      	b.n	3890 <_printf_float+0x258>
    3a9a:	f04f 0800 	mov.w	r8, #0
    3a9e:	f104 0919 	add.w	r9, r4, #25
    3aa2:	e7f4      	b.n	3a8e <_printf_float+0x456>

00003aa4 <_printf_common>:
    3aa4:	e92d 47f0 	stmdb	sp!, {r4, r5, r6, r7, r8, r9, sl, lr}
    3aa8:	4616      	mov	r6, r2
    3aaa:	4699      	mov	r9, r3
    3aac:	688a      	ldr	r2, [r1, #8]
    3aae:	690b      	ldr	r3, [r1, #16]
    3ab0:	f8dd 8020 	ldr.w	r8, [sp, #32]
    3ab4:	4293      	cmp	r3, r2
    3ab6:	bfb8      	it	lt
    3ab8:	4613      	movlt	r3, r2
    3aba:	6033      	str	r3, [r6, #0]
    3abc:	f891 2043 	ldrb.w	r2, [r1, #67]	; 0x43
    3ac0:	4607      	mov	r7, r0
    3ac2:	460c      	mov	r4, r1
    3ac4:	b10a      	cbz	r2, 3aca <_printf_common+0x26>
    3ac6:	3301      	adds	r3, #1
    3ac8:	6033      	str	r3, [r6, #0]
    3aca:	6823      	ldr	r3, [r4, #0]
    3acc:	0699      	lsls	r1, r3, #26
    3ace:	bf42      	ittt	mi
    3ad0:	6833      	ldrmi	r3, [r6, #0]
    3ad2:	3302      	addmi	r3, #2
    3ad4:	6033      	strmi	r3, [r6, #0]
    3ad6:	6825      	ldr	r5, [r4, #0]
    3ad8:	f015 0506 	ands.w	r5, r5, #6
    3adc:	d106      	bne.n	3aec <_printf_common+0x48>
    3ade:	f104 0a19 	add.w	sl, r4, #25
    3ae2:	68e3      	ldr	r3, [r4, #12]
    3ae4:	6832      	ldr	r2, [r6, #0]
    3ae6:	1a9b      	subs	r3, r3, r2
    3ae8:	42ab      	cmp	r3, r5
    3aea:	dc26      	bgt.n	3b3a <_printf_common+0x96>
    3aec:	f894 2043 	ldrb.w	r2, [r4, #67]	; 0x43
    3af0:	1e13      	subs	r3, r2, #0
    3af2:	6822      	ldr	r2, [r4, #0]
    3af4:	bf18      	it	ne
    3af6:	2301      	movne	r3, #1
    3af8:	0692      	lsls	r2, r2, #26
    3afa:	d42b      	bmi.n	3b54 <_printf_common+0xb0>
    3afc:	f104 0243 	add.w	r2, r4, #67	; 0x43
    3b00:	4649      	mov	r1, r9
    3b02:	4638      	mov	r0, r7
    3b04:	47c0      	blx	r8
    3b06:	3001      	adds	r0, #1
    3b08:	d01e      	beq.n	3b48 <_printf_common+0xa4>
    3b0a:	6823      	ldr	r3, [r4, #0]
    3b0c:	68e5      	ldr	r5, [r4, #12]
    3b0e:	6832      	ldr	r2, [r6, #0]
    3b10:	f003 0306 	and.w	r3, r3, #6
    3b14:	2b04      	cmp	r3, #4
    3b16:	bf08      	it	eq
    3b18:	1aad      	subeq	r5, r5, r2
    3b1a:	68a3      	ldr	r3, [r4, #8]
    3b1c:	6922      	ldr	r2, [r4, #16]
    3b1e:	bf0c      	ite	eq
    3b20:	ea25 75e5 	biceq.w	r5, r5, r5, asr #31
    3b24:	2500      	movne	r5, #0
    3b26:	4293      	cmp	r3, r2
    3b28:	bfc4      	itt	gt
    3b2a:	1a9b      	subgt	r3, r3, r2
    3b2c:	18ed      	addgt	r5, r5, r3
    3b2e:	2600      	movs	r6, #0
    3b30:	341a      	adds	r4, #26
    3b32:	42b5      	cmp	r5, r6
    3b34:	d11a      	bne.n	3b6c <_printf_common+0xc8>
    3b36:	2000      	movs	r0, #0
    3b38:	e008      	b.n	3b4c <_printf_common+0xa8>
    3b3a:	2301      	movs	r3, #1
    3b3c:	4652      	mov	r2, sl
    3b3e:	4649      	mov	r1, r9
    3b40:	4638      	mov	r0, r7
    3b42:	47c0      	blx	r8
    3b44:	3001      	adds	r0, #1
    3b46:	d103      	bne.n	3b50 <_printf_common+0xac>
    3b48:	f04f 30ff 	mov.w	r0, #4294967295	; 0xffffffff
    3b4c:	e8bd 87f0 	ldmia.w	sp!, {r4, r5, r6, r7, r8, r9, sl, pc}
    3b50:	3501      	adds	r5, #1
    3b52:	e7c6      	b.n	3ae2 <_printf_common+0x3e>
    3b54:	18e1      	adds	r1, r4, r3
    3b56:	1c5a      	adds	r2, r3, #1
    3b58:	2030      	movs	r0, #48	; 0x30
    3b5a:	f881 0043 	strb.w	r0, [r1, #67]	; 0x43
    3b5e:	4422      	add	r2, r4
    3b60:	f894 1045 	ldrb.w	r1, [r4, #69]	; 0x45
    3b64:	f882 1043 	strb.w	r1, [r2, #67]	; 0x43
    3b68:	3302      	adds	r3, #2
    3b6a:	e7c7      	b.n	3afc <_printf_common+0x58>
    3b6c:	2301      	movs	r3, #1
    3b6e:	4622      	mov	r2, r4
    3b70:	4649      	mov	r1, r9
    3b72:	4638      	mov	r0, r7
    3b74:	47c0      	blx	r8
    3b76:	3001      	adds	r0, #1
    3b78:	d0e6      	beq.n	3b48 <_printf_common+0xa4>
    3b7a:	3601      	adds	r6, #1
    3b7c:	e7d9      	b.n	3b32 <_printf_common+0x8e>
	...

00003b80 <_printf_i>:
    3b80:	e92d 47ff 	stmdb	sp!, {r0, r1, r2, r3, r4, r5, r6, r7, r8, r9, sl, lr}
    3b84:	7e0f      	ldrb	r7, [r1, #24]
    3b86:	9d0c      	ldr	r5, [sp, #48]	; 0x30
    3b88:	2f78      	cmp	r7, #120	; 0x78
    3b8a:	4691      	mov	r9, r2
    3b8c:	4680      	mov	r8, r0
    3b8e:	460c      	mov	r4, r1
    3b90:	469a      	mov	sl, r3
    3b92:	f101 0243 	add.w	r2, r1, #67	; 0x43
    3b96:	d807      	bhi.n	3ba8 <_printf_i+0x28>
    3b98:	2f62      	cmp	r7, #98	; 0x62
    3b9a:	d80a      	bhi.n	3bb2 <_printf_i+0x32>
    3b9c:	2f00      	cmp	r7, #0
    3b9e:	f000 80d8 	beq.w	3d52 <_printf_i+0x1d2>
    3ba2:	2f58      	cmp	r7, #88	; 0x58
    3ba4:	f000 80a3 	beq.w	3cee <_printf_i+0x16e>
    3ba8:	f104 0542 	add.w	r5, r4, #66	; 0x42
    3bac:	f884 7042 	strb.w	r7, [r4, #66]	; 0x42
    3bb0:	e03a      	b.n	3c28 <_printf_i+0xa8>
    3bb2:	f1a7 0363 	sub.w	r3, r7, #99	; 0x63
    3bb6:	2b15      	cmp	r3, #21
    3bb8:	d8f6      	bhi.n	3ba8 <_printf_i+0x28>
    3bba:	a101      	add	r1, pc, #4	; (adr r1, 3bc0 <_printf_i+0x40>)
    3bbc:	f851 f023 	ldr.w	pc, [r1, r3, lsl #2]
    3bc0:	00003c19 	.word	0x00003c19
    3bc4:	00003c2d 	.word	0x00003c2d
    3bc8:	00003ba9 	.word	0x00003ba9
    3bcc:	00003ba9 	.word	0x00003ba9
    3bd0:	00003ba9 	.word	0x00003ba9
    3bd4:	00003ba9 	.word	0x00003ba9
    3bd8:	00003c2d 	.word	0x00003c2d
    3bdc:	00003ba9 	.word	0x00003ba9
    3be0:	00003ba9 	.word	0x00003ba9
    3be4:	00003ba9 	.word	0x00003ba9
    3be8:	00003ba9 	.word	0x00003ba9
    3bec:	00003d39 	.word	0x00003d39
    3bf0:	00003c5d 	.word	0x00003c5d
    3bf4:	00003d1b 	.word	0x00003d1b
    3bf8:	00003ba9 	.word	0x00003ba9
    3bfc:	00003ba9 	.word	0x00003ba9
    3c00:	00003d5b 	.word	0x00003d5b
    3c04:	00003ba9 	.word	0x00003ba9
    3c08:	00003c5d 	.word	0x00003c5d
    3c0c:	00003ba9 	.word	0x00003ba9
    3c10:	00003ba9 	.word	0x00003ba9
    3c14:	00003d23 	.word	0x00003d23
    3c18:	682b      	ldr	r3, [r5, #0]
    3c1a:	1d1a      	adds	r2, r3, #4
    3c1c:	681b      	ldr	r3, [r3, #0]
    3c1e:	602a      	str	r2, [r5, #0]
    3c20:	f104 0542 	add.w	r5, r4, #66	; 0x42
    3c24:	f884 3042 	strb.w	r3, [r4, #66]	; 0x42
    3c28:	2301      	movs	r3, #1
    3c2a:	e0a3      	b.n	3d74 <_printf_i+0x1f4>
    3c2c:	6820      	ldr	r0, [r4, #0]
    3c2e:	6829      	ldr	r1, [r5, #0]
    3c30:	0606      	lsls	r6, r0, #24
    3c32:	f101 0304 	add.w	r3, r1, #4
    3c36:	d50a      	bpl.n	3c4e <_printf_i+0xce>
    3c38:	680e      	ldr	r6, [r1, #0]
    3c3a:	602b      	str	r3, [r5, #0]
    3c3c:	2e00      	cmp	r6, #0
    3c3e:	da03      	bge.n	3c48 <_printf_i+0xc8>
    3c40:	232d      	movs	r3, #45	; 0x2d
    3c42:	4276      	negs	r6, r6
    3c44:	f884 3043 	strb.w	r3, [r4, #67]	; 0x43
    3c48:	485e      	ldr	r0, [pc, #376]	; (3dc4 <_printf_i+0x244>)
    3c4a:	230a      	movs	r3, #10
    3c4c:	e019      	b.n	3c82 <_printf_i+0x102>
    3c4e:	680e      	ldr	r6, [r1, #0]
    3c50:	602b      	str	r3, [r5, #0]
    3c52:	f010 0f40 	tst.w	r0, #64	; 0x40
    3c56:	bf18      	it	ne
    3c58:	b236      	sxthne	r6, r6
    3c5a:	e7ef      	b.n	3c3c <_printf_i+0xbc>
    3c5c:	682b      	ldr	r3, [r5, #0]
    3c5e:	6820      	ldr	r0, [r4, #0]
    3c60:	1d19      	adds	r1, r3, #4
    3c62:	6029      	str	r1, [r5, #0]
    3c64:	0601      	lsls	r1, r0, #24
    3c66:	d501      	bpl.n	3c6c <_printf_i+0xec>
    3c68:	681e      	ldr	r6, [r3, #0]
    3c6a:	e002      	b.n	3c72 <_printf_i+0xf2>
    3c6c:	0646      	lsls	r6, r0, #25
    3c6e:	d5fb      	bpl.n	3c68 <_printf_i+0xe8>
    3c70:	881e      	ldrh	r6, [r3, #0]
    3c72:	4854      	ldr	r0, [pc, #336]	; (3dc4 <_printf_i+0x244>)
    3c74:	2f6f      	cmp	r7, #111	; 0x6f
    3c76:	bf0c      	ite	eq
    3c78:	2308      	moveq	r3, #8
    3c7a:	230a      	movne	r3, #10
    3c7c:	2100      	movs	r1, #0
    3c7e:	f884 1043 	strb.w	r1, [r4, #67]	; 0x43
    3c82:	6865      	ldr	r5, [r4, #4]
    3c84:	60a5      	str	r5, [r4, #8]
    3c86:	2d00      	cmp	r5, #0
    3c88:	bfa2      	ittt	ge
    3c8a:	6821      	ldrge	r1, [r4, #0]
    3c8c:	f021 0104 	bicge.w	r1, r1, #4
    3c90:	6021      	strge	r1, [r4, #0]
    3c92:	b90e      	cbnz	r6, 3c98 <_printf_i+0x118>
    3c94:	2d00      	cmp	r5, #0
    3c96:	d04d      	beq.n	3d34 <_printf_i+0x1b4>
    3c98:	4615      	mov	r5, r2
    3c9a:	fbb6 f1f3 	udiv	r1, r6, r3
    3c9e:	fb03 6711 	mls	r7, r3, r1, r6
    3ca2:	5dc7      	ldrb	r7, [r0, r7]
    3ca4:	f805 7d01 	strb.w	r7, [r5, #-1]!
    3ca8:	4637      	mov	r7, r6
    3caa:	42bb      	cmp	r3, r7
    3cac:	460e      	mov	r6, r1
    3cae:	d9f4      	bls.n	3c9a <_printf_i+0x11a>
    3cb0:	2b08      	cmp	r3, #8
    3cb2:	d10b      	bne.n	3ccc <_printf_i+0x14c>
    3cb4:	6823      	ldr	r3, [r4, #0]
    3cb6:	07de      	lsls	r6, r3, #31
    3cb8:	d508      	bpl.n	3ccc <_printf_i+0x14c>
    3cba:	6923      	ldr	r3, [r4, #16]
    3cbc:	6861      	ldr	r1, [r4, #4]
    3cbe:	4299      	cmp	r1, r3
    3cc0:	bfde      	ittt	le
    3cc2:	2330      	movle	r3, #48	; 0x30
    3cc4:	f805 3c01 	strble.w	r3, [r5, #-1]
    3cc8:	f105 35ff 	addle.w	r5, r5, #4294967295	; 0xffffffff
    3ccc:	1b52      	subs	r2, r2, r5
    3cce:	6122      	str	r2, [r4, #16]
    3cd0:	f8cd a000 	str.w	sl, [sp]
    3cd4:	464b      	mov	r3, r9
    3cd6:	aa03      	add	r2, sp, #12
    3cd8:	4621      	mov	r1, r4
    3cda:	4640      	mov	r0, r8
    3cdc:	f7ff fee2 	bl	3aa4 <_printf_common>
    3ce0:	3001      	adds	r0, #1
    3ce2:	d14c      	bne.n	3d7e <_printf_i+0x1fe>
    3ce4:	f04f 30ff 	mov.w	r0, #4294967295	; 0xffffffff
    3ce8:	b004      	add	sp, #16
    3cea:	e8bd 87f0 	ldmia.w	sp!, {r4, r5, r6, r7, r8, r9, sl, pc}
    3cee:	4835      	ldr	r0, [pc, #212]	; (3dc4 <_printf_i+0x244>)
    3cf0:	f881 7045 	strb.w	r7, [r1, #69]	; 0x45
